(dp0
I-2147270648
(lp1
sI-2147344374
(lp2
(F1451154962.298059
I700
tp3
a(F1451169192.474634
I700
tp4
a(F1451171663.209271
I700
tp5
asI-2147295221
(lp6
(F1451150981.581327
I800
tp7
a(F1451168521.35159
I850
tp8
asI-2147295220
(lp9
(F1451116537.617817
I800
tp10
a(F1451152450.648246
I850
tp11
a(F1451155138.472253
I900
tp12
a(F1451157811.259869
I900
tp13
asI-2147311599
(lp14
(F1451152547.040428
I700
tp15
a(F1451173701.395798
I700
tp16
asI-2097030067
(lp17
sI-2147278810
(lp18
sI-2147483607
(lp19
(F1451117747.091015
I34750
tp20
a(F1451118165.097382
I35000
tp21
a(F1451152176.09797
I34250
tp22
a(F1451154637.6941
I35000
tp23
a(F1451173202.84015
I35750
tp24
a(F1451179678.486041
I36000
tp25
asI-2096979923
(lp26
(F1451169294.224941
I800
tp27
asI-2147289762
(lp28
sI-2147459018
(lp29
sI-2147289761
(lp30
(F1451118037.394726
I700
tp31
a(F1451154684.268367
I700
tp32
a(F1451168620.667518
I700
tp33
asI-2147434436
(lp34
sI-2147311550
(lp35
sI-2147295159
(lp36
sI-2147368884
(lp37
sI-2147377075
(lp38
(F1451116523.923366
I1200
tp39
a(F1451117770.998226
I1200
tp40
a(F1451118234.848593
I1200
tp41
a(F1451118418.445122
I1200
tp42
a(F1451118421.137563
I1200
tp43
a(F1451118423.868512
I1200
tp44
a(F1451118426.573533
I1200
tp45
a(F1451118429.292628
I1200
tp46
a(F1451118432.074619
I1200
tp47
a(F1451118434.817715
I1200
tp48
a(F1451118437.601752
I1200
tp49
a(F1451118440.350443
I1200
tp50
a(F1451118443.051656
I1200
tp51
a(F1451118445.78458
I1200
tp52
a(F1451118448.553211
I1200
tp53
a(F1451118451.338106
I1200
tp54
a(F1451152085.451976
I1200
tp55
a(F1451154957.111542
I1200
tp56
a(F1451169307.521585
I1300
tp57
asI-2147483568
(lp58
sI-2096979886
(lp59
sI-2147278764
(lp60
sI-2147262379
(lp61
sI-2147344280
(lp62
(F1451170755.978314
I650
tp63
a(F1451173633.680011
I650
tp64
asI-2147478169
(lp65
(F1451155165.725307
I1000
tp66
a(F1451172564.833141
I1200
tp67
a(F1451177807.024004
I1100
tp68
a(F1451206384.257291
I1300
tp69
a(F1451210007.215755
I1400
tp70
a(F1451213810.88732
I1400
tp71
asI-2147295124
(lp72
sI-2147303314
(lp73
(F1451116669.096291
I650
tp74
asI-2147311505
(lp75
sI-2147274732
(lp76
sI-2147270534
(lp77
sI-2147336069
(lp78
sI-2147295103
(lp79
(F1451118143.108406
I56500
tp80
a(F1451206017.888757
I61500
tp81
a(F1451210064.122682
I62000
tp82
a(F1451585884.638136
I56500
tp83
asI-2147303289
(lp84
sI-2147311473
(lp85
(F1451150816.219564
I2300
tp86
a(F1451170990.015757
I2300
tp87
asI-2147295081
(lp88
(F1451116638.501171
I21750
tp89
a(F1451150776.028045
I24000
tp90
a(F1451154603.750257
I23750
tp91
a(F1451169290.352086
I24750
tp92
a(F1451181219.113767
I24250
tp93
a(F1451206076.382007
I24000
tp94
asI-2147278685
(lp95
(F1451116196.491433
I2300
tp96
a(F1451118527.253742
I2000
tp97
a(F1451118752.158266
I2000
tp98
a(F1451151016.750284
I2200
tp99
a(F1451154270.773911
I2200
tp100
a(F1451157668.419665
I2200
tp101
a(F1451168932.672143
I2200
tp102
asI-2147336027
(lp103
sI-2147278678
(lp104
sI-2147311445
(lp105
sI-2147278671
(lp106
sI-2147303245
(lp107
(F1451150847.375943
I14750
tp108
a(F1451154394.838197
I14500
tp109
a(F1451173709.243788
I14500
tp110
a(F1451177752.566194
I14250
tp111
a(F1451185952.759731
I14500
tp112
a(F1451204936.519601
I14500
tp113
asI-2147319619
(lp114
sI-2147306123
(lp115
sI-2147286847
(lp116
sI-2147295032
(lp117
sI-2147321140
(lp118
(F1451118346.935981
I700
tp119
a(F1451151117.556724
I700
tp120
a(F1451154711.007772
I700
tp121
asI-2147335988
(lp122
sI-2096971568
(lp123
(F1451118209.55259
I850
tp124
a(F1451151062.487095
I900
tp125
a(F1451151185.66926
I950
tp126
a(F1451155071.559571
I900
tp127
a(F1451157573.502385
I900
tp128
a(F1451169219.417926
I900
tp129
asI-2147327786
(lp130
(F1451153954.324648
I57500
tp131
a(F1451206098.331953
I58000
tp132
a(F1451210550.575038
I59500
tp133
a(F1451364791.37047
I60500
tp134
a(F1451461719.987941
I55500
tp135
asI-2147434279
(lp136
(F1451116367.484292
I800
tp137
a(F1451118134.911753
I750
tp138
a(F1451154764.500929
I1200
tp139
a(F1451171353.923533
I900
tp140
asI-2147434278
(lp141
(F1451118783.845908
I950
tp142
a(F1451118893.775437
I950
tp143
a(F1451152398.850632
I750
tp144
a(F1451154620.624923
I750
tp145
a(F1451157569.275737
I750
tp146
a(F1451168676.933348
I800
tp147
a(F1451171042.439931
I800
tp148
asI-2147319572
(lp149
sI-2147327763
(lp150
(F1451118655.366577
I1000
tp151
a(F1451118882.99111
I1000
tp152
a(F1451152633.920517
I900
tp153
a(F1451169340.696906
I1000
tp154
asI-2147294994
(lp155
sI-2147327761
(lp156
(F1451152362.164984
I700
tp157
a(F1451154933.044907
I750
tp158
a(F1451168867.60578
I700
tp159
asI-2147319566
(lp160
(F1451152082.658098
I1000
tp161
a(F1451154549.807304
I1100
tp162
a(F1451171046.230174
I1000
tp163
asI-2147327751
(lp164
(F1451116549.655696
I700
tp165
a(F1451171398.056015
I700
tp166
a(F1451206308.383393
I750
tp167
a(F1451210265.368101
I750
tp168
a(F1451215422.698106
I700
tp169
a(F1451235118.097245
I750
tp170
asI-2147311365
(lp171
sI-2147311363
(lp172
sI-2147319554
(lp173
sI-2147311358
(lp174
sI-2147270388
(lp175
sI-2147278579
(lp176
sI-2147286764
(lp177
sI-2147294952
(lp178
sI-2147475175
(lp179
sI-2147278565
(lp180
sI-2147311332
(lp181
(F1451116437.577747
I700
tp182
a(F1451169235.843291
I750
tp183
a(F1451171072.740767
I800
tp184
asI-2147286749
(lp185
sI-2147270352
(lp186
sI-2147335871
(lp187
sI-2147335869
(lp188
(F1451118666.92022
I650
tp189
asI-2147327676
(lp190
(F1451157908.587793
I700
tp191
a(F1451168532.553335
I700
tp192
asI-2147475131
(lp193
sI-2147335866
(lp194
sI-2147327672
(lp195
sI-2147319479
(lp196
(F1451117788.825377
I1500
tp197
a(F1451117863.200514
I1500
tp198
a(F1451118397.26591
I1500
tp199
a(F1451118619.812107
I1500
tp200
a(F1451150762.93856
I1700
tp201
a(F1451151036.474572
I1700
tp202
a(F1451154220.160799
I1700
tp203
a(F1451157549.183569
I1700
tp204
a(F1451168482.930973
I1700
tp205
a(F1451172285.265142
I1700
tp206
a(F1451174148.941675
I1700
tp207
asI-2147483318
(lp208
(F1451118009.607037
I750
tp209
a(F1451155131.382934
I700
tp210
a(F1451174210.991237
I700
tp211
asI-2147327664
(lp212
sI-2147335854
(lp213
sI-2147327659
(lp214
sI-2147347518
(lp215
(F1451168840.481833
I700
tp216
a(F1451179899.924191
I700
tp217
a(F1451212684.444257
I800
tp218
a(F1451236827.094713
I750
tp219
a(F1451461670.99674
I800
tp220
asI-2147294878
(lp221
(F1451118539.22089
I700
tp222
a(F1451152315.689578
I700
tp223
asI-2147303365
(lp224
sI-2147458716
(lp225
sI-2147285615
(lp226
sI-2096940312
(lp227
sI-2147319437
(lp228
sI-2147278473
(lp229
(F1451154584.256754
I750
tp230
asI-2147270274
(lp231
sI-2147294846
(lp232
(F1451116608.213699
I1300
tp233
a(F1451117732.229573
I1400
tp234
a(F1451151191.397508
I1500
tp235
a(F1451154600.583397
I1300
tp236
a(F1451170732.069282
I1300
tp237
a(F1451174181.083598
I1200
tp238
asI-2147294845
(lp239
(F1451116327.722949
I900
tp240
a(F1451155047.264664
I900
tp241
a(F1451157559.485441
I950
tp242
asI-2080169592
(lp243
sI-2147278455
(lp244
sI-2147278454
(lp245
sI-2096981267
(lp246
sI-2147294832
(lp247
sI-2147343980
(lp248
(F1451116551.972317
I750
tp249
a(F1451154211.752182
I800
tp250
a(F1451157889.58588
I750
tp251
asI-2147294819
(lp252
(F1451116334.434448
I950
tp253
a(F1451154038.717306
I1000
tp254
a(F1451179303.524979
I900
tp255
a(F1451213605.378374
I1100
tp256
a(F1451364767.539188
I900
tp257
asI-2147310181
(lp258
sI-2147294808
(lp259
(F1451152144.725616
I700
tp260
a(F1451168737.128724
I700
tp261
asI-2147294788
(lp262
(F1451118718.217335
I700
tp263
a(F1451155114.647971
I700
tp264
asI-2147286587
(lp265
(F1451118496.456187
I1200
tp266
a(F1451118912.961837
I1200
tp267
a(F1451151232.486042
I950
tp268
a(F1451154797.681712
I950
tp269
a(F1451157616.10251
I950
tp270
a(F1451173206.746691
I1000
tp271
asI-2147306079
(lp272
sI-2147343928
(lp273
(F1451117363.947032
I16500
tp274
a(F1451118335.36257
I17000
tp275
a(F1451154369.049434
I17750
tp276
a(F1451171460.461277
I18000
tp277
a(F1451181342.945511
I17750
tp278
a(F1451206429.460586
I17500
tp279
asI-2147294772
(lp280
sI-2097028414
(lp281
sI-2147330652
(lp282
sI-2147286565
(lp283
sI-2096952582
(lp284
sI-2147319326
(lp285
sI-2147296516
(lp286
sI-2147311126
(lp287
(F1451152599.556104
I700
tp288
asI-2147302932
(lp289
(F1451155041.691491
I700
tp290
asI-2147311534
(lp291
sI-2147327506
(lp292
(F1451116308.985967
I750
tp293
a(F1451118953.980115
I750
tp294
a(F1451151089.943703
I750
tp295
a(F1451173008.020431
I850
tp296
a(F1451179944.281242
I800
tp297
a(F1451205315.471215
I800
tp298
asI-2147286531
(lp299
sI-2147319723
(lp300
sI-2147311095
(lp301
(F1451151030.633089
I650
tp302
a(F1451170409.122186
I650
tp303
asI-2147294706
(lp304
(F1451116629.861148
I750
tp305
a(F1451117720.792538
I800
tp306
a(F1451118110.576958
I850
tp307
a(F1451118550.507089
I900
tp308
a(F1451150850.409143
I800
tp309
a(F1451153837.537764
I900
tp310
asI-2147294705
(lp311
(F1451117896.513776
I800
tp312
a(F1451118358.627555
I800
tp313
a(F1451155079.242409
I850
tp314
a(F1451174480.892721
I850
tp315
a(F1451179910.567956
I850
tp316
a(F1451186358.816601
I800
tp317
asI-2147319272
(lp318
(F1451169047.583281
I700
tp319
asI-2147294693
(lp320
sI-2147278308
(lp321
sI-2147278286
(lp322
sI-2147294660
(lp323
sI-2147311038
(lp324
(F1451116000.536141
I950
tp325
a(F1451116009.73166
I950
tp326
a(F1451169115.642255
I1200
tp327
a(F1451172652.027221
I1200
tp328
a(F1451181265.635734
I1200
tp329
a(F1451205227.761034
I1100
tp330
asI-2147343805
(lp331
sI-2147267312
(lp332
sI-2147319213
(lp333
(F1451152378.965085
I800
tp334
a(F1451154357.591169
I700
tp335
asI-2147343788
(lp336
sI-2147278247
(lp337
sI-2147302822
(lp338
(F1451150745.415724
I800
tp339
asI-2147343779
(lp340
(F1451118907.519853
I900
tp341
a(F1451150962.235821
I900
tp342
a(F1451154046.94436
I950
tp343
a(F1451157827.075498
I1000
tp344
a(F1451174504.793332
I950
tp345
a(F1451181287.480326
I950
tp346
asI-2147278241
(lp347
sI-2147278240
(lp348
(F1451116572.963603
I700
tp349
a(F1451154122.115051
I700
tp350
asI-2147286423
(lp351
sI-2147319186
(lp352
(F1451154171.049729
I800
tp353
a(F1451168635.808337
I750
tp354
asI-2147286417
(lp355
sI-2147319180
(lp356
(F1451170338.769542
I4600
tp357
a(F1451177785.285364
I4500
tp358
a(F1451206927.532986
I4700
tp359
a(F1451211962.862599
I4600
tp360
a(F1451364756.759232
I5200
tp361
a(F1451461731.095986
I4400
tp362
asI-2147286406
(lp363
(F1451152506.709659
I1200
tp364
a(F1451154626.585388
I1200
tp365
a(F1451172553.313792
I1200
tp366
a(F1451178854.401834
I1100
tp367
a(F1451186972.263372
I1100
tp368
a(F1451206889.377547
I1100
tp369
asI-2147319171
(lp370
(F1451154248.642043
I800
tp371
a(F1451171065.311203
I750
tp372
asI-2147310976
(lp373
(F1451171681.827396
I700
tp374
asI-2147319157
(lp375
(F1451154759.213051
I900
tp376
asI-2147310964
(lp377
sI-2147261810
(lp378
sI-2147335529
(lp379
(F1451154865.214161
I700
tp380
a(F1451179965.988368
I700
tp381
a(F1451213630.999406
I750
tp382
a(F1451237317.313756
I700
tp383
a(F1451461853.847544
I750
tp384
a(F1451585821.127153
I800
tp385
asI-2147319143
(lp386
sI-2147335526
(lp387
sI-2147335525
(lp388
(F1451170457.926731
I650
tp389
asI-2147442013
(lp390
(F1451117980.743567
I850
tp391
a(F1451150800.318637
I850
tp392
a(F1451154991.73526
I800
tp393
a(F1451169344.442277
I800
tp394
asI-2147335510
(lp395
(F1451152136.528508
I700
tp396
a(F1451154436.811598
I700
tp397
a(F1451169282.924888
I700
tp398
asI-2147310932
(lp399
sI-2147294543
(lp400
sI-2147310925
(lp401
(F1451118017.829466
I1500
tp402
a(F1451118626.128425
I1500
tp403
a(F1451152093.508594
I1600
tp404
a(F1451154476.479744
I1600
tp405
a(F1451168801.961725
I1700
tp406
a(F1451172643.394091
I1700
tp407
asI-2147278150
(lp408
sI-2147312865
(lp409
(F1451115997.756409
I1000
tp410
a(F1451116619.012633
I850
tp411
a(F1451152627.934573
I850
tp412
a(F1451154555.70062
I900
tp413
a(F1451157598.090719
I1200
tp414
a(F1451168913.112694
I1200
tp415
a(F1451174137.316929
I950
tp416
asI-2147294531
(lp417
sI-2147343680
(lp418
(F1451172675.344582
I700
tp419
a(F1451181276.753113
I700
tp420
a(F1451188791.567154
I700
tp421
a(F1451205360.399948
I700
tp422
a(F1451210746.135166
I700
tp423
a(F1451215556.251773
I700
tp424
asI-2147302718
(lp425
(F1451152111.83783
I700
tp426
a(F1451154502.415428
I700
tp427
a(F1451174108.866603
I850
tp428
a(F1451178582.249915
I750
tp429
a(F1451205801.333381
I700
tp430
a(F1451210286.965743
I700
tp431
asI-2147294523
(lp432
(F1451116245.968573
I800
tp433
a(F1451152335.040709
I850
tp434
a(F1451154923.570256
I950
tp435
a(F1451157611.250968
I850
tp436
asI-2147278138
(lp437
(F1451155099.047247
I700
tp438
asI-2147335481
(lp439
sI-2147441974
(lp440
sI-2096956637
(lp441
sI-2147278124
(lp442
sI-2147278123
(lp443
(F1451150748.174041
I700
tp444
a(F1451150887.613054
I700
tp445
a(F1451174169.14976
I700
tp446
asI-2147302693
(lp447
sI-2147343651
(lp448
(F1451150722.528006
I750
tp449
a(F1451152565.663709
I700
tp450
a(F1451154529.898135
I700
tp451
a(F1451212673.22555
I700
tp452
a(F1451237178.666794
I700
tp453
a(F1451323529.096414
I800
tp454
asI-2147294492
(lp455
sI-2147294491
(lp456
(F1451153846.296417
I2800
tp457
asI-2147294483
(lp458
sI-2147294479
(lp459
sI-2096987760
(lp460
sI-2147335431
(lp461
sI-2147327236
(lp462
sI-2147278082
(lp463
(F1451150691.530385
I1100
tp464
a(F1451154293.813645
I1100
tp465
asI-2147316134
(lp466
(F1451170953.08856
I700
tp467
a(F1451174067.074035
I700
tp468
asI-2096963455
(lp469
(F1451210077.083797
I315000
tp470
asI-2147359273
(lp471
(F1451150932.479251
I800
tp472
a(F1451154663.505169
I750
tp473
a(F1451173789.975647
I750
tp474
asI-2147327215
(lp475
sI-2147302634
(lp476
sI-2147294437
(lp477
sI-2147335395
(lp478
sI-2096946400
(lp479
sI-2147278047
(lp480
(F1451118228.298355
I800
tp481
asI-2096979165
(lp482
sI-2147302618
(lp483
sI-2096985294
(lp484
(F1451169011.964278
I31750
tp485
asI-2147343566
(lp486
sI-2147474634
(lp487
(F1451235400.152012
I234000
tp488
asI-2147294406
(lp489
(F1451116003.353189
I13750
tp490
a(F1451154830.708026
I14000
tp491
a(F1451168760.431703
I14750
tp492
a(F1451171448.862934
I14500
tp493
a(F1451173646.469013
I14500
tp494
a(F1451178154.230516
I14500
tp495
asI-2147294402
(lp496
(F1451118338.177017
I700
tp497
a(F1451152332.236612
I700
tp498
a(F1451170720.703611
I700
tp499
a(F1451174514.941966
I700
tp500
asI-2147278016
(lp501
(F1451116383.820134
I700
tp502
asI-2147294398
(lp503
(F1451152370.40442
I1000
tp504
a(F1451154495.441358
I1000
tp505
a(F1451170445.635149
I1000
tp506
asI-2147294397
(lp507
sI-2147286203
(lp508
(F1451186224.59815
I60000
tp509
a(F1451204925.267218
I59500
tp510
a(F1451209171.736185
I59500
tp511
a(F1451213169.13261
I59500
tp512
a(F1451235688.123839
I60500
tp513
a(F1451323444.380492
I60500
tp514
asI-2147310777
(lp515
(F1451154226.348588
I3000
tp516
a(F1451168673.177703
I3200
tp517
a(F1451171007.779579
I3200
tp518
a(F1451178538.844694
I3100
tp519
a(F1451205183.160843
I3600
tp520
a(F1451210017.976941
I3600
tp521
asI-2147368115
(lp522
(F1451117904.935068
I800
tp523
a(F1451168490.457541
I800
tp524
a(F1451170473.672887
I800
tp525
a(F1451177664.702987
I750
tp526
a(F1451205326.389528
I950
tp527
a(F1451209961.058733
I950
tp528
asI-2147310769
(lp529
(F1451116108.603139
I2200
tp530
a(F1451116432.87202
I2200
tp531
a(F1451116605.703558
I2100
tp532
a(F1451150734.064176
I2400
tp533
a(F1451155150.994691
I2400
tp534
a(F1451168936.374189
I2400
tp535
asI-2147314222
(lp536
sI-2147310766
(lp537
sI-2147294377
(lp538
sI-2147270513
(lp539
sI-2147291035
(lp540
sI-2147294368
(lp541
sI-2147285530
(lp542
(F1451154862.409893
I750
tp543
a(F1451157535.949789
I800
tp544
a(F1451170315.034791
I800
tp545
asI-2147327129
(lp546
sI-2147302550
(lp547
sI-2147277941
(lp548
(F1451155177.95356
I650
tp549
asI-2147294324
(lp550
sI-2147294316
(lp551
(F1451117857.686853
I10000
tp552
a(F1451118245.617713
I10500
tp553
a(F1451152193.018923
I10250
tp554
a(F1451172956.605259
I10500
tp555
a(F1451178920.944656
I9200
tp556
a(F1451210446.122643
I10000
tp557
asI-2147310699
(lp558
sI-2097012032
(lp559
(F1451210409.092821
I30000
tp560
asI-2147318879
(lp561
(F1451118595.152591
I700
tp562
a(F1451153972.216759
I700
tp563
a(F1451170326.719207
I700
tp564
asI-2096979038
(lp565
sI-2147269722
(lp566
sI-2147294294
(lp567
sI-2147294290
(lp568
(F1451116650.037721
I950
tp569
a(F1451118780.657892
I1000
tp570
a(F1451152411.330405
I1100
tp571
a(F1451154629.387023
I1100
tp572
a(F1451168547.96008
I1000
tp573
a(F1451185453.387036
I1000
tp574
asI-2147299171
(lp575
(F1451170417.375404
I700
tp576
a(F1451172293.314855
I700
tp577
asI-2147294286
(lp578
(F1451116279.108402
I7200
tp579
a(F1451118140.343641
I7100
tp580
a(F1451118323.946445
I7100
tp581
a(F1451151115.008968
I7300
tp582
a(F1451151280.151666
I7200
tp583
a(F1451154451.979352
I7200
tp584
a(F1451172982.634974
I7500
tp585
asI-2147335245
(lp586
sI-2147294275
(lp587
sI-2147343426
(lp588
sI-2147327032
(lp589
(F1451171410.354877
I73000
tp590
a(F1451174058.642895
I72000
tp591
a(F1451196141.153414
I72000
tp592
a(F1451208282.59062
I71000
tp593
a(F1451237293.377275
I71500
tp594
a(F1451364396.784839
I72500
tp595
asI-2147343415
(lp596
(F1451118936.071169
I750
tp597
a(F1451155049.882889
I700
tp598
asI-2147294260
(lp599
(F1451118409.226175
I1900
tp600
a(F1451155008.442331
I2000
tp601
a(F1451172986.358304
I2000
tp602
asI-2147294258
(lp603
sI-2147327025
(lp604
sI-2096952497
(lp605
(F1451364466.583584
I20500
tp606
asI-2147318813
(lp607
sI-2147310618
(lp608
sI-2147326998
(lp609
sI-2147294225
(lp610
(F1451154286.359669
I700
tp611
asI-2147343374
(lp612
sI-2147318789
(lp613
(F1451116355.392049
I5800
tp614
a(F1451118162.405959
I5900
tp615
a(F1451118729.073344
I5900
tp616
a(F1451152353.228224
I6000
tp617
a(F1451168571.123073
I6000
tp618
a(F1451174097.149991
I6000
tp619
asI-2147343355
(lp620
sI-2147318770
(lp621
sI-2147294187
(lp622
sI-2147326935
(lp623
(F1451152242.776717
I700
tp624
a(F1451155134.33333
I700
tp625
asI-2096970709
(lp626
sI-2147294164
(lp627
sI-2147335122
(lp628
sI-2147319943
(lp629
(F1451118214.104749
I900
tp630
a(F1451118482.756328
I850
tp631
a(F1451150827.637209
I1000
tp632
a(F1451154043.980321
I900
tp633
a(F1451169211.688812
I950
tp634
a(F1451178909.866458
I950
tp635
asI-2147294160
(lp636
sI-2147285967
(lp637
sI-2147326926
(lp638
sI-2147294157
(lp639
sI-2147294143
(lp640
(F1451118611.240952
I4100
tp641
a(F1451118643.390724
I4100
tp642
a(F1451151107.118228
I4300
tp643
a(F1451151235.294446
I4100
tp644
a(F1451154948.537046
I4100
tp645
a(F1451173342.201852
I4200
tp646
asI-2147294142
(lp647
sI-2147294140
(lp648
sI-2147294139
(lp649
(F1451154408.674071
I5200
tp650
a(F1451168563.254566
I5300
tp651
a(F1451173291.851705
I5300
tp652
a(F1451178549.536868
I5200
tp653
a(F1451204878.550209
I5000
tp654
a(F1451208784.767778
I5600
tp655
asI-2147302330
(lp656
sI-2147294137
(lp657
(F1451116179.116688
I6700
tp658
a(F1451116422.947511
I6700
tp659
a(F1451154722.52154
I7000
tp660
a(F1451186591.60412
I6800
tp661
a(F1451208259.006327
I7000
tp662
a(F1451212250.157862
I7000
tp663
asI-2147294135
(lp664
(F1451118314.710525
I1100
tp665
a(F1451154461.08655
I1100
tp666
a(F1451169141.939726
I1100
tp667
a(F1451174201.620274
I1500
tp668
a(F1451207329.002742
I1100
tp669
a(F1451212309.71927
I1100
tp670
asI-2147310502
(lp671
sI-2147318689
(lp672
(F1451154343.375681
I700
tp673
asI-2147277725
(lp674
sI-2147326872
(lp675
sI-2147277705
(lp676
(F1451154612.429838
I750
tp677
a(F1451173249.088671
I700
tp678
asI-2147294088
(lp679
(F1451154818.43843
I700
tp680
a(F1451179989.240655
I700
tp681
a(F1451212001.299746
I800
tp682
a(F1451235344.026589
I800
tp683
asI-2147318663
(lp684
(F1451153859.906333
I700
tp685
a(F1451168657.226121
I700
tp686
a(F1451174484.835595
I700
tp687
asI-2147285892
(lp688
sI-2147376001
(lp689
sI-2096987006
(lp690
(F1451116163.594011
I900
tp691
a(F1451118369.707286
I950
tp692
a(F1451152571.142491
I900
tp693
a(F1451154973.568364
I850
tp694
asI-2147375997
(lp695
sI-2147294074
(lp696
sI-2147294073
(lp697
sI-2147301865
(lp698
(F1451116006.0798
I1400
tp699
a(F1451169215.605543
I1600
tp700
a(F1451172999.952383
I1600
tp701
a(F1451178444.837623
I1600
tp702
a(F1451185485.731915
I1600
tp703
a(F1451206054.473877
I1900
tp704
asI-2147310450
(lp705
(F1451118616.940929
I700
tp706
a(F1451150858.566846
I700
tp707
asI-2147310444
(lp708
sI-2147285867
(lp709
(F1451152122.690194
I7900
tp710
a(F1451185909.400386
I8000
tp711
a(F1451204914.401901
I8000
tp712
a(F1451208665.707087
I8600
tp713
a(F1451212920.777286
I8600
tp714
a(F1451235655.489461
I8500
tp715
asI-2147433321
(lp716
sI-2147310440
(lp717
(F1451116236.609847
I800
tp718
a(F1451118272.78334
I800
tp719
a(F1451151039.407656
I900
tp720
a(F1451154299.676832
I1000
tp721
asI-2147310438
(lp722
(F1451116506.191353
I8000
tp723
a(F1451153939.018053
I8800
tp724
a(F1451174453.688255
I8900
tp725
a(F1451179224.587472
I8700
tp726
a(F1451186201.7035
I9300
tp727
a(F1451204867.839072
I9400
tp728
asI-2147482469
(lp729
(F1451116709.736342
I4200
tp730
a(F1451118306.109648
I4700
tp731
a(F1451118839.21363
I4300
tp732
a(F1451118841.982414
I4300
tp733
a(F1451171377.683009
I4800
tp734
a(F1451178887.019025
I4500
tp735
asI-2147294052
(lp736
(F1451154426.330171
I17750
tp737
a(F1451171057.872686
I18500
tp738
a(F1451173276.427423
I18000
tp739
a(F1451178077.937728
I17500
tp740
a(F1451209949.969409
I19000
tp741
a(F1451236975.781284
I19250
tp742
asI-2147277660
(lp743
(F1451116341.563927
I1100
tp744
a(F1451117948.513407
I1100
tp745
a(F1451118516.354151
I1400
tp746
a(F1451150869.723637
I1300
tp747
a(F1451151079.227568
I1300
tp748
a(F1451151208.878639
I1300
tp749
a(F1451155175.290182
I1200
tp750
a(F1451157724.552526
I1200
tp751
a(F1451170379.980635
I1200
tp752
a(F1451173345.91449
I1200
tp753
asI-2147310427
(lp754
(F1451116317.056498
I1600
tp755
a(F1451118020.751094
I1500
tp756
a(F1451152198.462699
I1900
tp757
a(F1451172593.291888
I1900
tp758
a(F1451178100.047595
I1900
tp759
a(F1451186235.359852
I1800
tp760
asI-2147294042
(lp761
sI-2147277653
(lp762
(F1451152187.111969
I800
tp763
asI-2147310420
(lp764
(F1451172639.580958
I700
tp765
asI-2147311415
(lp766
sI-2147269441
(lp767
(F1451152441.978049
I700
tp768
asI-2147375935
(lp769
(F1451152470.646405
I700
tp770
asI-2147482429
(lp771
(F1451154188.975713
I700
tp772
a(F1451173311.57771
I700
tp773
asI-2147367739
(lp774
sI-2147457850
(lp775
(F1451115991.690471
I650
tp776
a(F1451168947.687958
I650
tp777
a(F1451172624.187235
I650
tp778
asI-2096970542
(lp779
(F1451116017.868842
I850
tp780
a(F1451153910.93582
I1000
tp781
a(F1451207011.599965
I1000
tp782
a(F1451212233.092537
I950
tp783
a(F1451323482.221325
I1200
tp784
a(F1451364694.691739
I1100
tp785
asI-2147302189
(lp786
sI-2147482410
(lp787
(F1451116400.776449
I750
tp788
a(F1451154093.710355
I700
tp789
a(F1451174500.857757
I750
tp790
asI-2147285795
(lp791
(F1451117710.745198
I2100
tp792
a(F1451118885.712806
I2100
tp793
a(F1451152416.709221
I2200
tp794
a(F1451154756.060069
I2200
tp795
asI-2147334937
(lp796
(F1451155066.030188
I750
tp797
a(F1451205337.011817
I750
tp798
asI-2147277590
(lp799
sI-2147302165
(lp800
(F1451152114.551856
I700
tp801
a(F1451174205.911088
I700
tp802
asI-2147320755
(lp803
sI-2147293967
(lp804
sI-2147326734
(lp805
sI-2147318539
(lp806
(F1451150978.791008
I700
tp807
a(F1451157756.699422
I850
tp808
asI-2147261191
(lp809
sI-2147293958
(lp810
(F1451118592.550786
I950
tp811
a(F1451168741.143057
I700
tp812
a(F1451173256.4663
I700
tp813
asI-2096954110
(lp814
sI-2147285748
(lp815
sI-2147293936
(lp816
(F1451154099.393959
I800
tp817
asI-2147293933
(lp818
sI-2096952444
(lp819
(F1451154521.536041
I55000
tp820
a(F1451209160.980753
I60000
tp821
a(F1451461575.191511
I57500
tp822
asI-2147293923
(lp823
sI-2147449569
(lp824
(F1451152613.750305
I700
tp825
a(F1451157775.362114
I750
tp826
a(F1451173303.782748
I750
tp827
asI-2147318495
(lp828
(F1451150893.267169
I40500
tp829
a(F1451171728.20091
I40750
tp830
a(F1451186280.680285
I41000
tp831
a(F1451208687.584002
I42000
tp832
a(F1451237350.692023
I43000
tp833
a(F1451585787.992133
I36500
tp834
asI-2096954063
(lp835
(F1451116181.542227
I1100
tp836
a(F1451117735.044421
I1000
tp837
a(F1451118176.067415
I1200
tp838
a(F1451153840.703839
I1200
tp839
asI-2147318474
(lp840
sI-2147284087
(lp841
sI-2147302088
(lp842
(F1451151146.379646
I900
tp843
a(F1451154069.090933
I800
tp844
a(F1451169003.86863
I950
tp845
asI-2147343047
(lp846
(F1451116481.472302
I750
tp847
a(F1451154725.37105
I800
tp848
a(F1451173288.079266
I850
tp849
a(F1451186246.91116
I750
tp850
a(F1451209924.124355
I950
tp851
a(F1451215496.589489
I900
tp852
asI-2147310278
(lp853
sI-2147326660
(lp854
sI-2147310275
(lp855
sI-2147334845
(lp856
(F1451157971.447308
I800
tp857
a(F1451170425.868463
I850
tp858
a(F1451180023.886244
I750
tp859
a(F1451189019.33389
I750
tp860
a(F1451207307.039133
I850
tp861
a(F1451212401.095978
I850
tp862
asI-2147302075
(lp863
sI-2147318457
(lp864
sI-2147343028
(lp865
sI-2147285683
(lp866
sI-2147301832
(lp867
sI-2147285446
(lp868
(F1451117922.546523
I700
tp869
a(F1451150951.016369
I700
tp870
asI-2147293853
(lp871
sI-2147334809
(lp872
sI-2147293843
(lp873
sI-2147433106
(lp874
(F1451153976.081891
I850
tp875
a(F1451157771.799049
I850
tp876
asI-2147310222
(lp877
(F1451117826.740921
I750
tp878
a(F1451152326.887876
I950
tp879
a(F1451154371.921782
I900
tp880
asI-2147318413
(lp881
sI-2147285642
(lp882
sI-2147318409
(lp883
(F1451118113.289037
I2200
tp884
a(F1451118544.683928
I2200
tp885
a(F1451154954.057187
I2500
tp886
a(F1451168555.61605
I2500
tp887
a(F1451185996.701025
I2500
tp888
a(F1451206961.262234
I2700
tp889
asI-2147310216
(lp890
sI-2147285639
(lp891
(F1451154231.902637
I950
tp892
a(F1451171103.592906
I950
tp893
a(F1451188825.047754
I850
tp894
a(F1451209023.282658
I950
tp895
a(F1451213196.218173
I1000
tp896
a(F1451323275.388784
I1100
tp897
asI-2096978564
(lp898
(F1451154880.538067
I1100
tp899
a(F1451173397.377183
I1000
tp900
asI-2147318401
(lp901
(F1451152090.585423
I700
tp902
a(F1451173693.758894
I700
tp903
asI-2147278196
(lp904
sI-2147285625
(lp905
sI-2147285617
(lp906
sI-2147277423
(lp907
(F1451150984.142727
I750
tp908
a(F1451154180.651242
I700
tp909
a(F1451173333.647403
I850
tp910
asI-2147319569
(lp911
sI-2147277410
(lp912
sI-2147310174
(lp913
(F1451151098.48982
I950
tp914
a(F1451174496.831925
I1100
tp915
asI-2147334584
(lp916
sI-2147293767
(lp917
(F1451116610.65272
I1600
tp918
a(F1451117665.30859
I1600
tp919
a(F1451154643.224745
I1800
tp920
a(F1451170322.612056
I1800
tp921
a(F1451172995.333454
I1800
tp922
asI-2096953924
(lp923
(F1451117799.842273
I850
tp924
a(F1451151160.355787
I1000
tp925
a(F1451169145.695439
I1000
tp926
a(F1451186646.86616
I900
tp927
a(F1451205260.254537
I1000
tp928
a(F1451209936.047803
I950
tp929
asI-2147285571
(lp930
(F1451116015.132536
I1000
tp931
a(F1451116688.86701
I1000
tp932
a(F1451118760.407575
I1000
tp933
a(F1451118877.293626
I1400
tp934
a(F1451150742.554574
I1200
tp935
a(F1451151211.696789
I1200
tp936
a(F1451153921.947538
I1200
tp937
a(F1451168901.81485
I1200
tp938
a(F1451173023.889001
I1200
tp939
asI-2147277375
(lp940
(F1451157962.978505
I700
tp941
a(F1451172604.725198
I750
tp942
asI-2147285429
(lp943
(F1451116170.175862
I1100
tp944
a(F1451116269.106289
I1100
tp945
a(F1451117369.659908
I1100
tp946
a(F1451152577.558732
I1200
tp947
a(F1451154532.74324
I1300
tp948
a(F1451170748.318378
I1300
tp949
asI-2147473972
(lp950
(F1451157979.015226
I700
tp951
a(F1451168690.466683
I700
tp952
a(F1451171705.251457
I700
tp953
asI-2096996103
(lp954
(F1451209209.116588
I26250
tp955
asI-2147285535
(lp956
sI-2147277342
(lp957
sI-2147301914
(lp958
sI-2147348225
(lp959
sI-2096953859
(lp960
sI-2147285503
(lp961
sI-2147293685
(lp962
(F1451116665.872753
I950
tp963
a(F1451117983.587644
I1000
tp964
a(F1451118129.693704
I1200
tp965
a(F1451118477.240628
I1000
tp966
a(F1451118499.305041
I1000
tp967
a(F1451151095.76902
I1200
tp968
asI-2147285484
(lp969
sI-2096970217
(lp970
(F1451185898.639466
I43000
tp971
a(F1451212297.829781
I48750
tp972
a(F1451236860.796355
I43500
tp973
a(F1451461383.830049
I46750
tp974
asI-2147441127
(lp975
sI-2147285472
(lp976
(F1451150881.958565
I750
tp977
a(F1451213265.020417
I850
tp978
a(F1451461634.960602
I900
tp979
asI-2096959226
(lp980
sI-2147310040
(lp981
(F1451116707.52906
I650
tp982
a(F1451154194.463944
I650
tp983
a(F1451172560.828719
I650
tp984
asI-2147375568
(lp985
(F1451116306.624092
I1100
tp986
a(F1451117695.919692
I1100
tp987
a(F1451151260.860233
I1200
tp988
a(F1451154385.957009
I1200
tp989
a(F1451169247.632601
I1200
tp990
a(F1451171732.160956
I1200
tp991
a(F1451174437.752286
I1200
tp992
asI-2147285452
(lp993
(F1451154434.212221
I700
tp994
asI-2147285450
(lp995
sI-2147285448
(lp996
sI-2147318214
(lp997
sI-2147301828
(lp998
(F1451154139.726676
I800
tp999
a(F1451168905.526249
I900
tp1000
a(F1451174433.996374
I850
tp1001
a(F1451181242.372112
I850
tp1002
a(F1451207418.744501
I850
tp1003
a(F1451211988.276061
I850
tp1004
asI-2147285435
(lp1005
(F1451118608.505776
I700
tp1006
a(F1451152404.26769
I700
tp1007
asI-2147260858
(lp1008
sI-2147277241
(lp1009
sI-2147293624
(lp1010
(F1451154429.027576
I700
tp1011
asI-2147482037
(lp1012
(F1451152530.346607
I800
tp1013
a(F1451154677.535365
I750
tp1014
a(F1451168744.846436
I750
tp1015
a(F1451172966.47318
I700
tp1016
a(F1451179888.233506
I700
tp1017
a(F1451237233.577663
I700
tp1018
asI-2147277235
(lp1019
sI-2147269039
(lp1020
sI-2147285405
(lp1021
(F1451154107.538574
I650
tp1022
a(F1451173642.771651
I650
tp1023
asI-2147301776
(lp1024
(F1451117737.910223
I32250
tp1025
a(F1451177708.172035
I33500
tp1026
a(F1451207375.141567
I31750
tp1027
a(F1451213486.263295
I33500
tp1028
a(F1451323504.826211
I34500
tp1029
a(F1451364780.409313
I34500
tp1030
asI-2147326344
(lp1031
(F1451118899.194712
I950
tp1032
a(F1451151274.45214
I1000
tp1033
a(F1451153916.693085
I950
tp1034
asI-2147442412
(lp1035
(F1451209731.001683
I147000
tp1036
a(F1451213547.077885
I145000
tp1037
a(F1451236838.825001
I148000
tp1038
a(F1451461753.340701
I138000
tp1039
asI-2147326338
(lp1040
sI-2096959211
(lp1041
sI-2147277181
(lp1042
sI-2147293564
(lp1043
(F1451117662.492523
I650
tp1044
a(F1451169066.552526
I650
tp1045
a(F1451172297.725621
I650
tp1046
asI-2147318131
(lp1047
sI-2147318128
(lp1048
sI-2147330834
(lp1049
sI-2147318122
(lp1050
(F1451171740.217454
I700
tp1051
asI-2147334501
(lp1052
(F1451153930.113971
I650
tp1053
asI-2147318112
(lp1054
sI-2147309917
(lp1055
(F1451118822.685654
I213000
tp1056
a(F1451152444.891603
I210000
tp1057
a(F1451207045.975008
I220000
tp1058
a(F1451212332.680381
I220000
tp1059
asI-2147318094
(lp1060
sI-2147318093
(lp1061
sI-2147285319
(lp1062
(F1451116514.560658
I1200
tp1063
a(F1451117752.708337
I1100
tp1064
a(F1451118355.019523
I1200
tp1065
a(F1451118513.708073
I1200
tp1066
a(F1451154769.309829
I1400
tp1067
a(F1451157655.166147
I1400
tp1068
a(F1451168794.356554
I1200
tp1069
asI-2097016545
(lp1070
sI-2096952374
(lp1071
sI-2147293505
(lp1072
sI-2147334464
(lp1073
sI-2147465533
(lp1074
sI-2147293499
(lp1075
(F1451117761.51511
I1700
tp1076
a(F1451117768.118255
I1700
tp1077
asI-2147293498
(lp1078
sI-2147309877
(lp1079
(F1451118282.05383
I6800
tp1080
a(F1451173241.786752
I7700
tp1081
a(F1451178517.194391
I7300
tp1082
a(F1451185864.27238
I7200
tp1083
a(F1451209011.22715
I7100
tp1084
a(F1451212741.078682
I7200
tp1085
asI-2147318068
(lp1086
(F1451117673.980965
I1200
tp1087
a(F1451117878.709073
I1200
tp1088
a(F1451151226.031515
I1200
tp1089
a(F1451157923.65649
I1200
tp1090
a(F1451168640.582218
I1200
tp1091
a(F1451172656.190952
I1200
tp1092
asI-2147326256
(lp1093
(F1451150948.140495
I900
tp1094
a(F1451153995.849227
I900
tp1095
asI-2147277103
(lp1096
sI-2147359013
(lp1097
(F1451116402.833433
I700
tp1098
a(F1451157580.02262
I850
tp1099
a(F1451171401.766057
I800
tp1100
asI-2147260705
(lp1101
sI-2147285280
(lp1102
sI-2147273093
(lp1103
sI-2096982404
(lp1104
sI-2147301646
(lp1105
sI-2096978182
(lp1106
sI-2147277058
(lp1107
sI-2147481845
(lp1108
sI-2147367154
(lp1109
sI-2147293425
(lp1110
sI-2096961916
(lp1111
sI-2096995908
(lp1112
sI-2147293405
(lp1113
sI-2147326167
(lp1114
(F1451173670.169738
I950
tp1115
a(F1451205216.665085
I800
tp1116
a(F1451213619.939619
I950
tp1117
a(F1451235449.276991
I900
tp1118
a(F1451585901.66148
I750
tp1119
asI-2147342548
(lp1120
sI-2147293384
(lp1121
sI-2147276993
(lp1122
sI-2147295912
(lp1123
sI-2147293362
(lp1124
sI-2147309739
(lp1125
(F1451154877.52346
I1200
tp1126
asI-2147283996
(lp1127
sI-2147285144
(lp1128
sI-2147317908
(lp1129
sI-2096950623
(lp1130
sI-2147282624
(lp1131
(F1451117797.121613
I850
tp1132
a(F1451118910.267878
I850
tp1133
a(F1451154237.775996
I950
tp1134
a(F1451157720.73931
I950
tp1135
asI-2096969848
(lp1136
sI-2147342450
(lp1137
sI-2147342448
(lp1138
sI-2147301480
(lp1139
(F1451154666.097516
I700
tp1140
asI-2147285094
(lp1141
sI-2147432548
(lp1142
sI-2147432547
(lp1143
sI-2147260512
(lp1144
(F1451171392.852702
I700
tp1145
asI-2147300368
(lp1146
sI-2147301469
(lp1147
(F1451155158.65878
I700
tp1148
asI-2147286714
(lp1149
sI-2096998756
(lp1150
(F1451213277.157082
I21750
tp1151
asI-2147260494
(lp1152
sI-2147432525
(lp1153
(F1451116448.619446
I650
tp1154
asI-2096959159
(lp1155
sI-2147285064
(lp1156
(F1451172671.375516
I650
tp1157
asI-2097001484
(lp1158
sI-2147301436
(lp1159
(F1451116225.016015
I700
tp1160
a(F1451152381.546246
I700
tp1161
a(F1451155120.799508
I750
tp1162
a(F1451169051.339294
I700
tp1163
a(F1451171755.827981
I700
tp1164
asI-2096944138
(lp1165
sI-2096978269
(lp1166
(F1451118587.230057
I700000
tp1167
a(F1451171751.928046
I770000
tp1168
a(F1451462058.885602
I670000
tp1169
a(F1451585927.856997
I605000
tp1170
asI-2147260460
(lp1171
sI-2147268651
(lp1172
(F1451116112.848892
I950
tp1173
a(F1451116304.410992
I950
tp1174
a(F1451154082.26592
I1100
tp1175
asI-2147325983
(lp1176
(F1451154561.308863
I700
tp1177
a(F1451168863.408291
I800
tp1178
asI-2147282606
(lp1179
sI-2147325970
(lp1180
sI-2096975715
(lp1181
(F1451157884.860384
I29000
tp1182
a(F1451173405.589428
I26250
tp1183
asI-2147339949
(lp1184
sI-2147285000
(lp1185
sI-2147293188
(lp1186
(F1451118007.005019
I3500
tp1187
a(F1451150736.866969
I3300
tp1188
a(F1451154732.535255
I3400
tp1189
a(F1451169119.92971
I3800
tp1190
a(F1451171091.745472
I3600
tp1191
a(F1451204994.814653
I3400
tp1192
asI-2147268597
(lp1193
sI-2147293165
(lp1194
(F1451117690.480937
I26500
tp1195
a(F1451117794.353818
I26500
tp1196
a(F1451118375.251814
I26750
tp1197
a(F1451151277.2815
I27250
tp1198
a(F1451154229.121992
I27250
tp1199
a(F1451172281.451727
I27750
tp1200
asI-2147325932
(lp1201
sI-2147284965
(lp1202
(F1451116116.117532
I850
tp1203
a(F1451117805.885181
I950
tp1204
a(F1451118749.390877
I800
tp1205
a(F1451154738.594492
I850
tp1206
asI-2147293154
(lp1207
(F1451116652.251874
I1800
tp1208
asI-2096936929
(lp1209
sI-2147284960
(lp1210
(F1451153878.029122
I650
tp1211
asI-2147293146
(lp1212
sI-2147268569
(lp1213
sI-2147293141
(lp1214
sI-2147284942
(lp1215
sI-2147284938
(lp1216
(F1451152537.418511
I43500
tp1217
a(F1451154535.48483
I43000
tp1218
a(F1451169008.114112
I44250
tp1219
a(F1451170961.14877
I44000
tp1220
a(F1451178493.648023
I43000
tp1221
a(F1451188813.943361
I44000
tp1222
asI-2147293128
(lp1223
(F1451118605.756157
I950
tp1224
a(F1451154547.026233
I800
tp1225
asI-2147432391
(lp1226
sI-2147284931
(lp1227
(F1451118646.077442
I1400
tp1228
a(F1451172937.780559
I1500
tp1229
asI-2147334080
(lp1230
sI-2147294880
(lp1231
sI-2147293117
(lp1232
(F1451152652.439483
I3200
tp1233
a(F1451154912.481976
I3400
tp1234
a(F1451168694.307019
I3400
tp1235
a(F1451173373.042803
I3400
tp1236
asI-2147268540
(lp1237
(F1451157877.352602
I750
tp1238
asI-2096961456
(lp1239
sI-2147293101
(lp1240
(F1451152568.415602
I850
tp1241
a(F1451154592.543802
I800
tp1242
a(F1451178505.963255
I800
tp1243
a(F1451185930.987491
I800
tp1244
a(F1451206971.953598
I800
tp1245
a(F1451461817.077887
I900
tp1246
asI-2147456939
(lp1247
sI-2147318087
(lp1248
sI-2147293088
(lp1249
sI-2147481501
(lp1250
(F1451118045.12083
I700
tp1251
asI-2096953240
(lp1252
sI-2096989165
(lp1253
sI-2147293064
(lp1254
sI-2147359041
(lp1255
sI-2147284864
(lp1256
(F1451171361.436864
I1800
tp1257
a(F1451173731.788695
I2000
tp1258
asI-2147350399
(lp1259
(F1451118864.925148
I700
tp1260
a(F1451154988.091499
I700
tp1261
a(F1451169184.34744
I700
tp1262
asI-2147268467
(lp1263
sI-2147358577
(lp1264
sI-2147481452
(lp1265
sI-2147268436
(lp1266
sI-2096959117
(lp1267
sI-2147317576
(lp1268
(F1451153888.033083
I700
tp1269
asI-2147317574
(lp1270
sI-2080186217
(lp1271
(F1451208762.931826
I399000
tp1272
asI-2147317568
(lp1273
sI-2147292984
(lp1274
sI-2147293492
(lp1275
sI-2147294857
(lp1276
sI-2147292978
(lp1277
sI-2147291261
(lp1278
sI-2147301155
(lp1279
(F1451118855.455322
I3400
tp1280
a(F1451154116.33832
I4000
tp1281
a(F1451157904.859806
I4000
tp1282
a(F1451178482.116328
I3800
tp1283
a(F1451205837.283616
I3900
tp1284
a(F1451209972.983758
I4300
tp1285
asI-2147301154
(lp1286
(F1451152304.797411
I850
tp1287
a(F1451154945.3927
I850
tp1288
a(F1451169255.999227
I850
tp1289
a(F1451179002.066579
I800
tp1290
a(F1451186347.704103
I750
tp1291
a(F1451364732.198185
I750
tp1292
asI-2147301153
(lp1293
(F1451117925.269379
I1200
tp1294
a(F1451153966.536248
I1400
tp1295
a(F1451181231.069986
I1500
tp1296
a(F1451207396.656493
I1500
tp1297
a(F1451213581.203403
I1700
tp1298
a(F1451236928.850601
I1800
tp1299
asI-2147285296
(lp1300
sI-2147358481
(lp1301
(F1451154214.31777
I700
tp1302
a(F1451173033.303534
I700
tp1303
asI-2147301127
(lp1304
(F1451117705.229708
I17250
tp1305
a(F1451150890.510585
I17750
tp1306
a(F1451157959.045777
I18250
tp1307
a(F1451170972.821207
I18750
tp1308
a(F1451177686.764623
I18250
tp1309
a(F1451185920.122048
I18000
tp1310
asI-2147325701
(lp1311
sI-2147292932
(lp1312
(F1451152596.888634
I650
tp1313
a(F1451168917.238025
I650
tp1314
asI-2147339903
(lp1315
(F1451117774.883726
I1700
tp1316
a(F1451118059.328699
I1600
tp1317
a(F1451118479.989623
I1700
tp1318
a(F1451154251.376017
I1700
tp1319
a(F1451179358.906431
I1700
tp1320
a(F1451188719.801634
I1600
tp1321
asI-2147325688
(lp1322
(F1451116361.541082
I800
tp1323
a(F1451118569.384219
I800
tp1324
a(F1451168605.103362
I700
tp1325
asI-2147268332
(lp1326
sI-2147283922
(lp1327
(F1451118695.379917
I700
tp1328
asI-2147292900
(lp1329
sI-2147292899
(lp1330
sI-2147333857
(lp1331
sI-2147275728
(lp1332
sI-2147284702
(lp1333
sI-2147292892
(lp1334
sI-2147268315
(lp1335
sI-2147292887
(lp1336
sI-2147309269
(lp1337
sI-2147292883
(lp1338
sI-2096946808
(lp1339
sI-2147319415
(lp1340
sI-2147292870
(lp1341
sI-2147366585
(lp1342
sI-2147292849
(lp1343
sI-2096974612
(lp1344
sI-2147284643
(lp1345
sI-2147292833
(lp1346
sI-2147319408
(lp1347
(F1451118828.274444
I33000
tp1348
a(F1451150794.423057
I34500
tp1349
a(F1451150918.80365
I34500
tp1350
a(F1451155183.382119
I34500
tp1351
a(F1451169311.34052
I36000
tp1352
a(F1451171338.981497
I36250
tp1353
asI-2147301019
(lp1354
sI-2147268249
(lp1355
sI-2147456656
(lp1356
(F1451118261.530292
I700
tp1357
asI-2147343150
(lp1358
sI-2147268227
(lp1359
sI-2147284606
(lp1360
sI-2147292794
(lp1361
sI-2147260021
(lp1362
sI-2147292777
(lp1363
(F1451179348.294955
I255000
tp1364
a(F1451461564.023657
I240000
tp1365
asI-2096961125
(lp1366
(F1451153919.237225
I800
tp1367
a(F1451171768.996076
I800
tp1368
a(F1451174152.848945
I800
tp1369
asI-2147284579
(lp1370
(F1451116563.912371
I750
tp1371
a(F1451117714.740554
I800
tp1372
a(F1451152657.907301
I800
tp1373
a(F1451154527.155212
I750
tp1374
asI-2147284574
(lp1375
(F1451152640.275024
I650
tp1376
asI-2147325527
(lp1377
(F1451117969.503655
I700
tp1378
a(F1451117975.595319
I700
tp1379
a(F1451152204.819396
I750
tp1380
a(F1451170949.01233
I750
tp1381
a(F1451173770.33866
I800
tp1382
a(F1451178460.628131
I700
tp1383
asI-2147268182
(lp1384
(F1451151073.413991
I800
tp1385
a(F1451172585.837914
I700
tp1386
asI-2147285262
(lp1387
sI-2096963171
(lp1388
(F1451116111.132185
I50000
tp1389
a(F1451171114.937059
I45500
tp1390
asI-2096993862
(lp1391
sI-2147481156
(lp1392
sI-2147292729
(lp1393
sI-2147272969
(lp1394
(F1451118222.707657
I750
tp1395
asI-2147315294
(lp1396
(F1451154054.971696
I700
tp1397
a(F1451169138.111861
I700
tp1398
asI-2147309106
(lp1399
sI-2147309105
(lp1400
(F1451116199.65622
I1400
tp1401
a(F1451118648.86067
I1400
tp1402
a(F1451118703.738336
I1400
tp1403
a(F1451118765.898624
I1400
tp1404
a(F1451118915.68612
I1500
tp1405
a(F1451152201.912944
I1500
tp1406
a(F1451154518.482371
I1500
tp1407
a(F1451171708.837506
I1600
tp1408
asI-2147309099
(lp1409
sI-2147300904
(lp1410
(F1451150751.201828
I1200
tp1411
a(F1451168628.389067
I1200
tp1412
asI-2147284497
(lp1413
(F1451150844.581167
I1000
tp1414
a(F1451153933.495802
I950
tp1415
asI-2097030061
(lp1416
sI-2147292677
(lp1417
(F1451152072.415284
I700
tp1418
a(F1451172572.927009
I700
tp1419
asI-2147292676
(lp1420
(F1451118391.961774
I900
tp1421
a(F1451152287.844625
I800
tp1422
a(F1451154113.14873
I800
tp1423
asI-2147284479
(lp1424
sI-2147287977
(lp1425
(F1451150760.168559
I700
tp1426
asI-2147333613
(lp1427
(F1451116425.287515
I700
tp1428
a(F1451154442.194157
I700
tp1429
a(F1451170388.392836
I700
tp1430
asI-2147284459
(lp1431
(F1451116390.54644
I1000
tp1432
a(F1451117884.225147
I1000
tp1433
a(F1451168501.709293
I1100
tp1434
a(F1451170735.822131
I1200
tp1435
a(F1451172876.20093
I1300
tp1436
asI-2096993768
(lp1437
sI-2147472868
(lp1438
(F1451155052.263828
I700
tp1439
a(F1451170964.702304
I700
tp1440
a(F1451172921.724235
I700
tp1441
asI-2147297529
(lp1442
(F1451151177.43126
I700
tp1443
asI-2147316643
(lp1444
sI-2147276238
(lp1445
(F1451116094.903364
I1900
tp1446
a(F1451118104.695726
I1900
tp1447
a(F1451171429.602171
I2000
tp1448
asI-2147300812
(lp1449
sI-2147482470
(lp1450
sI-2147292616
(lp1451
sI-2147292605
(lp1452
(F1451116188.199113
I5700
tp1453
a(F1451116243.462811
I5700
tp1454
a(F1451116453.60944
I5700
tp1455
a(F1451116455.787896
I5700
tp1456
a(F1451117889.761932
I5700
tp1457
a(F1451118220.058624
I5800
tp1458
a(F1451168992.048786
I5400
tp1459
asI-2147259830
(lp1460
sI-2147300789
(lp1461
sI-2147292595
(lp1462
sI-2147300786
(lp1463
(F1451152495.321954
I800
tp1464
a(F1451154581.490924
I700
tp1465
asI-2147276207
(lp1466
sI-2147480997
(lp1467
sI-2147300769
(lp1468
(F1451154976.671858
I700
tp1469
a(F1451173727.893144
I700
tp1470
asI-2147300766
(lp1471
(F1451152553.368979
I750
tp1472
a(F1451154680.343151
I750
tp1473
a(F1451169207.785298
I800
tp1474
asI-2147307077
(lp1475
sI-2147300760
(lp1476
sI-2147327556
(lp1477
sI-2147373628
(lp1478
sI-2147472785
(lp1479
sI-2147284362
(lp1480
sI-2147292544
(lp1481
sI-2147284344
(lp1482
(F1451116592.062744
I2700
tp1483
a(F1451118151.606293
I2700
tp1484
a(F1451118493.628772
I2700
tp1485
a(F1451152283.934322
I2900
tp1486
a(F1451154405.880982
I2900
tp1487
a(F1451171716.497137
I3000
tp1488
asI-2063420988
(lp1489
sI-2147300707
(lp1490
sI-2147300703
(lp1491
(F1451152272.142644
I1200
tp1492
a(F1451169275.318164
I1200
tp1493
a(F1451172883.726234
I1100
tp1494
asI-2147267932
(lp1495
sI-2096982784
(lp1496
sI-2096952646
(lp1497
sI-2147292475
(lp1498
sI-2063395442
(lp1499
sI-2147292468
(lp1500
(F1451116254.842872
I3500
tp1501
a(F1451152155.950942
I3900
tp1502
a(F1451154310.716845
I4200
tp1503
a(F1451205271.676873
I4000
tp1504
a(F1451209115.17124
I4300
tp1505
a(F1451212968.771918
I4100
tp1506
asI-2147276082
(lp1507
(F1451117999.708642
I700
tp1508
a(F1451154183.574458
I700
tp1509
a(F1451181320.909001
I750
tp1510
a(F1451206938.910889
I700
tp1511
a(F1451235318.181105
I700
tp1512
a(F1451364421.686
I700
tp1513
asI-2147292462
(lp1514
sI-2147284265
(lp1515
sI-2147297500
(lp1516
sI-2147284255
(lp1517
(F1451154063.330403
I700
tp1518
a(F1451157931.848726
I700
tp1519
asI-2147292446
(lp1520
(F1451116231.800931
I5200
tp1521
a(F1451117849.355266
I5200
tp1522
a(F1451118107.54084
I5200
tp1523
a(F1451118258.857432
I5200
tp1524
a(F1451152117.136516
I5800
tp1525
a(F1451154052.577911
I5900
tp1526
a(F1451168890.714533
I5800
tp1527
a(F1451171015.869664
I5900
tp1528
asI-2147325210
(lp1529
sI-2147267863
(lp1530
(F1451116625.585943
I1000
tp1531
a(F1451152433.903269
I950
tp1532
a(F1451154675.15254
I900
tp1533
asI-2147292438
(lp1534
sI-2147267856
(lp1535
sI-2147263965
(lp1536
(F1451116207.02793
I1100
tp1537
a(F1451155082.172844
I1200
tp1538
a(F1451169000.052966
I1300
tp1539
asI-2147284236
(lp1540
(F1451154927.315572
I650
tp1541
a(F1451169059.062675
I650
tp1542
asI-2147284232
(lp1543
sI-2147284230
(lp1544
sI-2147284226
(lp1545
sI-2147283332
(lp1546
sI-2096971597
(lp1547
(F1451209613.905675
I220000
tp1548
asI-2147333370
(lp1549
sI-2147284214
(lp1550
sI-2147308789
(lp1551
sI-2097005438
(lp1552
sI-2096975400
(lp1553
sI-2147279785
(lp1554
sI-2147284197
(lp1555
sI-2147300580
(lp1556
(F1451116172.378928
I850
tp1557
a(F1451152260.698748
I950
tp1558
a(F1451172273.813771
I1100
tp1559
asI-2147320697
(lp1560
sI-2147275984
(lp1561
(F1451117679.190292
I950
tp1562
a(F1451118819.91526
I1000
tp1563
a(F1451118847.259547
I1000
tp1564
a(F1451151028.24303
I950
tp1565
a(F1451154278.065149
I900
tp1566
a(F1451157623.356198
I950
tp1567
a(F1451174128.596779
I900
tp1568
asI-2147316942
(lp1569
(F1451168951.448096
I1100
tp1570
a(F1451171422.022852
I1100
tp1571
a(F1451179591.138215
I1100
tp1572
a(F1451206395.906472
I1000
tp1573
a(F1451210423.457404
I1200
tp1574
a(F1451237190.033645
I1200
tp1575
asI-2147316940
(lp1576
sI-2147284166
(lp1577
(F1451116295.110083
I700
tp1578
a(F1451116613.386525
I700
tp1579
a(F1451151149.021437
I850
tp1580
a(F1451154649.158254
I800
tp1581
a(F1451177817.854126
I700
tp1582
a(F1451185440.722913
I700
tp1583
asI-2147284161
(lp1584
sI-2147300540
(lp1585
(F1451154886.222718
I1400
tp1586
a(F1451169108.089827
I1300
tp1587
asI-2147284145
(lp1588
(F1451118833.782168
I1100
tp1589
a(F1451150864.060131
I850
tp1590
a(F1451151249.221171
I850
tp1591
a(F1451157900.722803
I800
tp1592
a(F1451207317.472291
I1000
tp1593
a(F1451364349.095956
I750
tp1594
asI-2147267756
(lp1595
sI-2147300523
(lp1596
(F1451152349.898838
I650
tp1597
asI-2147300519
(lp1598
sI-2147275941
(lp1599
sI-2147464356
(lp1600
sI-2147374232
(lp1601
(F1451116292.699774
I700
tp1602
a(F1451118987.074028
I700
tp1603
a(F1451154245.879459
I700
tp1604
a(F1451168509.272624
I700
tp1605
a(F1451173326.10927
I700
tp1606
asI-2147267734
(lp1607
sI-2147267718
(lp1608
sI-2147431557
(lp1609
(F1451116332.216251
I1200
tp1610
a(F1451152277.435241
I1300
tp1611
a(F1451154296.91576
I1300
tp1612
a(F1451157717.037505
I1300
tp1613
a(F1451168940.133361
I1400
tp1614
a(F1451172895.985408
I1400
tp1615
asI-2147302934
(lp1616
(F1451150753.919726
I700
tp1617
a(F1451168613.075644
I750
tp1618
asI-2147284098
(lp1619
sI-2147284092
(lp1620
(F1451117717.787758
I5000
tp1621
a(F1451173263.765233
I5000
tp1622
a(F1451209666.20368
I5300
tp1623
a(F1451213798.130782
I5500
tp1624
a(F1451461742.193571
I5800
tp1625
a(F1451585737.000407
I4200
tp1626
asI-2147472507
(lp1627
(F1451117824.033184
I700
tp1628
a(F1451118639.622539
I700
tp1629
a(F1451153993.313739
I700
tp1630
a(F1451206463.207344
I750
tp1631
a(F1451210434.249137
I800
tp1632
a(F1451237144.056388
I700
tp1633
asI-2147300471
(lp1634
sI-2147284084
(lp1635
sI-2147333230
(lp1636
(F1451118074.122679
I750
tp1637
asI-2147300461
(lp1638
sI-2147431522
(lp1639
sI-2096993375
(lp1640
(F1451154096.531396
I1000
tp1641
a(F1451171076.567813
I1200
tp1642
a(F1451179613.011881
I1000
tp1643
a(F1451207385.915484
I1000
tp1644
a(F1451212272.520472
I1000
tp1645
a(F1451235632.90504
I1000
tp1646
asI-2147325022
(lp1647
(F1451118938.971309
I1100
tp1648
a(F1451152630.857392
I1300
tp1649
asI-2147275863
(lp1650
sI-2147284054
(lp1651
(F1451118029.031014
I700
tp1652
a(F1451118308.827948
I700
tp1653
a(F1451151194.129828
I700
tp1654
a(F1451154540.978224
I700
tp1655
a(F1451173234.228312
I700
tp1656
asI-2147284022
(lp1657
sI-2147333171
(lp1658
sI-2147300399
(lp1659
(F1451152210.651943
I700
tp1660
asI-2147300394
(lp1661
sI-2147300392
(lp1662
sI-2147285507
(lp1663
(F1451151019.739355
I1200
tp1664
a(F1451153832.100334
I1200
tp1665
a(F1451169127.566516
I1200
tp1666
a(F1451171350.216569
I1200
tp1667
asI-2080198149
(lp1668
(F1451171765.23149
I267000
tp1669
a(F1451285520.468261
I226000
tp1670
asI-2096952348
(lp1671
sI-2147300371
(lp1672
(F1451116476.846461
I141000
tp1673
a(F1451212695.238348
I148000
tp1674
a(F1451237156.056008
I150000
tp1675
a(F1451461792.162371
I145000
tp1676
asI-2080191504
(lp1677
(F1451168968.929943
I12000
tp1678
asI-2096952333
(lp1679
sI-2147333132
(lp1680
(F1451117817.374044
I700
tp1681
a(F1451154479.212358
I700
tp1682
a(F1451157641.841298
I700
tp1683
a(F1451171743.933633
I700
tp1684
asI-2147300363
(lp1685
(F1451152393.243595
I1400
tp1686
a(F1451154200.497241
I1400
tp1687
a(F1451169111.888033
I1400
tp1688
a(F1451171445.175429
I1400
tp1689
a(F1451179170.157893
I1400
tp1690
a(F1451206373.541389
I1400
tp1691
asI-2147275786
(lp1692
sI-2147300361
(lp1693
sI-2147300360
(lp1694
sI-2147275783
(lp1695
(F1451118278.570514
I1700
tp1696
a(F1451118811.564184
I1700
tp1697
a(F1451169036.352989
I1800
tp1698
a(F1451171385.331992
I1800
tp1699
a(F1451174415.502699
I1800
tp1700
a(F1451181197.269091
I1800
tp1701
asI-2147297451
(lp1702
sI-2147292160
(lp1703
sI-2147267583
(lp1704
sI-2147283933
(lp1705
(F1451117940.835966
I800
tp1706
a(F1451118190.350295
I800
tp1707
a(F1451118321.12501
I1000
tp1708
a(F1451118743.562822
I800
tp1709
a(F1451151065.226657
I900
tp1710
a(F1451179700.474367
I850
tp1711
asI-2147300316
(lp1712
sI-2147333083
(lp1713
(F1451154569.85786
I700
tp1714
a(F1451157681.523574
I800
tp1715
asI-2147431378
(lp1716
sI-2147283920
(lp1717
sI-2147300302
(lp1718
sI-2147292107
(lp1719
sI-2147275719
(lp1720
sI-2147283909
(lp1721
sI-2147333058
(lp1722
sI-2096960434
(lp1723
sI-2147300272
(lp1724
sI-2147283881
(lp1725
sI-2147324838
(lp1726
(F1451118400.014971
I700
tp1727
a(F1451150965.017233
I750
tp1728
a(F1451154397.659247
I850
tp1729
a(F1451172970.188437
I850
tp1730
asI-2096963057
(lp1731
(F1451323471.212236
I36250
tp1732
asI-2147300259
(lp1733
(F1451151220.499438
I700
tp1734
a(F1451173743.555132
I650
tp1735
asI-2147300254
(lp1736
(F1451117393.197758
I1300
tp1737
a(F1451118329.335528
I1300
tp1738
a(F1451152105.831824
I1400
tp1739
a(F1451154898.208046
I1500
tp1740
a(F1451157852.734736
I1500
tp1741
a(F1451168943.850419
I1500
tp1742
a(F1451171099.652749
I1500
tp1743
asI-2147300253
(lp1744
sI-2147290607
(lp1745
sI-2096948035
(lp1746
sI-2147341194
(lp1747
sI-2147275655
(lp1748
sI-2147332992
(lp1749
sI-2147300221
(lp1750
sI-2147275644
(lp1751
sI-2147324792
(lp1752
sI-2147275636
(lp1753
sI-2147308394
(lp1754
(F1451118034.840917
I700
tp1755
asI-2147283808
(lp1756
(F1451170311.280521
I700
tp1757
asI-2096994497
(lp1758
sI-2147283803
(lp1759
(F1451173267.325336
I650
tp1760
asI-2147291993
(lp1761
sI-2147300183
(lp1762
sI-2147283796
(lp1763
sI-2147324743
(lp1764
sI-2147300165
(lp1765
sI-2147300150
(lp1766
(F1451118383.766485
I850
tp1767
a(F1451157786.820307
I900
tp1768
a(F1451170392.650787
I900
tp1769
a(F1451173210.805438
I900
tp1770
a(F1451206441.288588
I850
tp1771
a(F1451210331.040807
I950
tp1772
asI-2147332924
(lp1773
(F1451116106.911788
I5300
tp1774
a(F1451186623.842568
I5500
tp1775
a(F1451204983.731731
I5700
tp1776
a(F1451208821.853834
I5600
tp1777
a(F1451213591.931119
I5500
tp1778
a(F1451237168.01678
I5700
tp1779
asI-2147291961
(lp1780
(F1451151205.805667
I900
tp1781
a(F1451155060.668197
I900
tp1782
a(F1451171381.43519
I800
tp1783
asI-2147300151
(lp1784
sI-2147267382
(lp1785
sI-2096975324
(lp1786
(F1451235366.314371
I320000
tp1787
asI-2147275544
(lp1788
sI-2147283734
(lp1789
(F1451116117.805407
I800
tp1790
a(F1451152406.959198
I850
tp1791
a(F1451169332.485788
I800
tp1792
a(F1451171724.479068
I800
tp1793
a(F1451205579.056376
I850
tp1794
a(F1451212979.865068
I850
tp1795
asI-2147324692
(lp1796
sI-2147291923
(lp1797
sI-2096993037
(lp1798
sI-2147310048
(lp1799
sI-2147324679
(lp1800
sI-2147291908
(lp1801
sI-2147283713
(lp1802
sI-2147275520
(lp1803
(F1451118603.028315
I1100
tp1804
a(F1451154951.225067
I1300
tp1805
a(F1451168963.025759
I1400
tp1806
asI-2147371404
(lp1807
sI-2147300092
(lp1808
(F1451117866.167786
I950
tp1809
a(F1451118572.167269
I1000
tp1810
a(F1451118713.15564
I950
tp1811
a(F1451118904.696103
I950
tp1812
a(F1451151258.063193
I1200
tp1813
a(F1451154772.135342
I1000
tp1814
a(F1451168733.394827
I1100
tp1815
a(F1451172934.039823
I1000
tp1816
asI-2147271465
(lp1817
(F1451118652.099922
I750
tp1818
a(F1451152364.868619
I850
tp1819
asI-2147267313
(lp1820
sI-2147300080
(lp1821
(F1451152231.679664
I700
tp1822
a(F1451154750.529588
I700
tp1823
a(F1451157732.159537
I700
tp1824
asI-2147300079
(lp1825
(F1451117914.227571
I950
tp1826
a(F1451154016.815376
I850
tp1827
a(F1451171776.787168
I750
tp1828
asI-2147431150
(lp1829
sI-2147308269
(lp1830
(F1451154634.821744
I700
tp1831
a(F1451157916.17104
I700
tp1832
a(F1451169324.226668
I700
tp1833
asI-2147300074
(lp1834
sI-2147373796
(lp1835
(F1451117943.38178
I650
tp1836
a(F1451152077.128658
I650
tp1837
asI-2147283661
(lp1838
(F1451151022.618588
I750
tp1839
a(F1451154142.837341
I750
tp1840
a(F1451169028.260708
I750
tp1841
a(F1451172635.834625
I750
tp1842
a(F1451179213.656478
I750
tp1843
a(F1451186391.245888
I750
tp1844
asI-2147271458
(lp1845
sI-2147324614
(lp1846
sI-2147324583
(lp1847
(F1451116276.74332
I1300
tp1848
a(F1451117375.409156
I1300
tp1849
a(F1451118962.168392
I1300
tp1850
a(F1451154654.844694
I1400
tp1851
a(F1451168810.479729
I1400
tp1852
a(F1451171689.793091
I1500
tp1853
asI-2147291814
(lp1854
sI-2147332140
(lp1855
sI-2147372485
(lp1856
sI-2096976538
(lp1857
(F1451151109.552154
I700
tp1858
a(F1451170334.570107
I700
tp1859
asI-2147267215
(lp1860
sI-2147299982
(lp1861
(F1451169085.507581
I700
tp1862
a(F1451172910.731567
I700
tp1863
asI-2147340941
(lp1864
sI-2147340940
(lp1865
sI-2147340927
(lp1866
sI-2147316343
(lp1867
(F1451154844.606864
I700
tp1868
a(F1451169123.581561
I700
tp1869
asI-2147267188
(lp1870
sI-2147267182
(lp1871
sI-2147267173
(lp1872
sI-2147480164
(lp1873
sI-2147340898
(lp1874
sI-2096968289
(lp1875
sI-2147340894
(lp1876
(F1451118101.832292
I1500
tp1877
a(F1451118240.153815
I1400
tp1878
a(F1451118405.571792
I1500
tp1879
a(F1451118676.86274
I1500
tp1880
a(F1451118861.260423
I1500
tp1881
a(F1451168814.171292
I1600
tp1882
a(F1451174473.366843
I1600
tp1883
asI-2147291738
(lp1884
(F1451116663.555025
I650
tp1885
a(F1451170465.848028
I650
tp1886
asI-2096951896
(lp1887
sI-2147324503
(lp1888
(F1451152158.855596
I700
tp1889
a(F1451155068.735158
I750
tp1890
a(F1451168559.471867
I700
tp1891
asI-2147283542
(lp1892
sI-2147324501
(lp1893
(F1451118264.462384
I1000
tp1894
a(F1451150839.166193
I1200
tp1895
a(F1451154558.472797
I1200
tp1896
a(F1451181175.21834
I1200
tp1897
a(F1451212039.862553
I1200
tp1898
a(F1451237257.997898
I1300
tp1899
asI-2147283537
(lp1900
sI-2147324685
(lp1901
sI-2147340873
(lp1902
sI-2147340868
(lp1903
(F1451154959.700019
I950
tp1904
a(F1451173677.730099
I900
tp1905
asI-2147340867
(lp1906
sI-2147340866
(lp1907
sI-2147340864
(lp1908
(F1451118361.409845
I1500
tp1909
a(F1451152419.807864
I1600
tp1910
a(F1451154305.13919
I1700
tp1911
a(F1451168859.757263
I1700
tp1912
a(F1451170739.95448
I1700
tp1913
a(F1451174477.109895
I1700
tp1914
asI-2147299903
(lp1915
sI-2147373629
(lp1916
sI-2147324476
(lp1917
sI-2147324473
(lp1918
(F1451154041.29087
I650
tp1919
a(F1451169134.630811
I650
tp1920
asI-2147373622
(lp1921
sI-2147275315
(lp1922
sI-2147275314
(lp1923
sI-2147283503
(lp1924
(F1451116411.984326
I750
tp1925
a(F1451150935.45529
I800
tp1926
a(F1451173029.613263
I950
tp1927
asI-2147275309
(lp1928
sI-2147283493
(lp1929
(F1451154145.653186
I700
tp1930
a(F1451157676.722667
I700
tp1931
asI-2096939782
(lp1932
(F1451212344.935853
I82000
tp1933
asI-2147267101
(lp1934
(F1451154704.973828
I700
tp1935
a(F1451168798.115334
I700
tp1936
asI-2147316251
(lp1937
(F1451116374.400731
I1700
tp1938
a(F1451150941.343247
I2000
tp1939
a(F1451154735.436778
I1900
tp1940
a(F1451168567.39
I1900
tp1941
a(F1451186983.860483
I1800
tp1942
a(F1451205779.011265
I1900
tp1943
asI-2147302829
(lp1944
sI-2147381768
(lp1945
sI-2147275269
(lp1946
sI-2147305557
(lp1947
sI-2096984569
(lp1948
sI-2147324408
(lp1949
sI-2096968180
(lp1950
sI-2096986847
(lp1951
(F1451364445.238667
I224000
tp1952
asI-2147430896
(lp1953
sI-2147267054
(lp1954
(F1451116330.026151
I1400
tp1955
a(F1451171674.364552
I1400
tp1956
asI-2147283433
(lp1957
sI-2147324387
(lp1958
(F1451152514.989421
I700
tp1959
a(F1451170941.868666
I700
tp1960
a(F1451173361.254573
I750
tp1961
asI-2147283425
(lp1962
sI-2147275230
(lp1963
sI-2147274149
(lp1964
sI-2147275227
(lp1965
sI-2147480026
(lp1966
(F1451172609.03674
I700
tp1967
asI-2147299793
(lp1968
(F1451116216.069423
I1100
tp1969
a(F1451153963.591534
I1200
tp1970
asI-2147330769
(lp1971
sI-2097100877
(lp1972
sI-2147340746
(lp1973
(F1451116096.5958
I700
tp1974
a(F1451153998.613716
I700
tp1975
a(F1451168669.089317
I700
tp1976
a(F1451171479.749095
I700
tp1977
a(F1451174079.867105
I700
tp1978
asI-2147324361
(lp1979
sI-2096968130
(lp1980
(F1451173673.914337
I800
tp1981
asI-2096988917
(lp1982
sI-2147283388
(lp1983
sI-2147316153
(lp1984
(F1451118121.400051
I106000
tp1985
a(F1451157823.109018
I114000
tp1986
a(F1451208474.510785
I113000
tp1987
a(F1451212366.422343
I115000
tp1988
a(F1451461766.190875
I110000
tp1989
a(F1451585775.950334
I110000
tp1990
asI-2147291575
(lp1991
(F1451168513.121473
I700
tp1992
asI-2147299765
(lp1993
sI-2147268680
(lp1994
sI-2096934301
(lp1995
sI-2147299755
(lp1996
sI-2147291562
(lp1997
sI-2147299753
(lp1998
(F1451116427.435578
I650
tp1999
a(F1451172289.016179
I700
tp2000
asI-2147348904
(lp2001
sI-2147340710
(lp2002
(F1451116404.916215
I700
tp2003
a(F1451152108.564485
I700
tp2004
a(F1451153913.833023
I700
tp2005
a(F1451172949.344361
I700
tp2006
asI-2147299749
(lp2007
(F1451117783.152081
I1100
tp2008
a(F1451151084.505317
I1100
tp2009
a(F1451169055.062201
I1100
tp2010
asI-2147299748
(lp2011
sI-2147291554
(lp2012
(F1451116502.45736
I750
tp2013
a(F1451116583.111646
I800
tp2014
a(F1451116600.733213
I800
tp2015
asI-2147283696
(lp2016
sI-2147299741
(lp2017
(F1451118880.415667
I46000
tp2018
a(F1451152439.190942
I46250
tp2019
a(F1451157912.589272
I47500
tp2020
a(F1451168661.143522
I46000
tp2021
a(F1451174469.524718
I48000
tp2022
a(F1451178165.377528
I48750
tp2023
asI-2147299739
(lp2024
(F1451152321.123028
I700
tp2025
a(F1451173357.535758
I700
tp2026
asI-2147340689
(lp2027
sI-2147266956
(lp2028
sI-2147340682
(lp2029
sI-2147291529
(lp2030
(F1451116407.563821
I21000
tp2031
a(F1451152526.570508
I22500
tp2032
a(F1451157955.260116
I22250
tp2033
a(F1451170993.971528
I24000
tp2034
a(F1451179280.373544
I22250
tp2035
a(F1451213288.450592
I22500
tp2036
asI-2147291526
(lp2037
sI-2147348869
(lp2038
(F1451150700.354158
I700
tp2039
a(F1451153849.219084
I700
tp2040
asI-2080174468
(lp2041
sI-2147316099
(lp2042
sI-2147287787
(lp2043
sI-2147299711
(lp2044
(F1451118290.703493
I850
tp2045
a(F1451155128.821729
I950
tp2046
a(F1451170774.883186
I950
tp2047
asI-2096968426
(lp2048
sI-2147282323
(lp2049
(F1451154458.375315
I650
tp2050
a(F1451168958.964392
I650
tp2051
asI-2147340647
(lp2052
(F1451117838.299641
I17250
tp2053
a(F1451168665.69502
I18000
tp2054
a(F1451178571.532365
I18500
tp2055
a(F1451208293.617263
I19250
tp2056
a(F1451215531.315384
I18750
tp2057
a(F1451461805.067618
I19000
tp2058
asI-2147299682
(lp2059
sI-2147299679
(lp2060
sI-2147348828
(lp2061
(F1451150970.330462
I700
tp2062
a(F1451157807.325643
I700
tp2063
a(F1451174445.299973
I700
tp2064
asI-2147299673
(lp2065
sI-2147381592
(lp2066
sI-2147300068
(lp2067
sI-2147266899
(lp2068
(F1451116218.102077
I700
tp2069
a(F1451152147.677207
I700
tp2070
asI-2147299666
(lp2071
sI-2147316049
(lp2072
(F1451169286.463678
I700
tp2073
asI-2147340623
(lp2074
sI-2147324230
(lp2075
sI-2147316034
(lp2076
sI-2147283259
(lp2077
(F1451118700.987551
I700
tp2078
a(F1451152245.419136
I750
tp2079
a(F1451154446.545131
I700
tp2080
a(F1451172549.506197
I750
tp2081
a(F1451178018.618567
I700
tp2082
a(F1451189063.3458
I700
tp2083
asI-2147266874
(lp2084
(F1451174419.916626
I650
tp2085
asI-2147307830
(lp2086
(F1451116468.029051
I650
tp2087
a(F1451152096.305695
I650
tp2088
a(F1451169319.14322
I650
tp2089
a(F1451172691.478899
I650
tp2090
asI-2096984372
(lp2091
(F1451170453.770965
I19250
tp2092
a(F1451174459.119724
I18250
tp2093
a(F1451205249.525993
I17750
tp2094
a(F1451211925.626069
I22000
tp2095
a(F1451216215.522686
I19500
tp2096
a(F1451323566.533946
I21250
tp2097
asI-2147266852
(lp2098
sI-2147291421
(lp2099
(F1451118269.946581
I1200
tp2100
a(F1451118754.945781
I1200
tp2101
a(F1451118757.698077
I1200
tp2102
a(F1451118777.965391
I1200
tp2103
a(F1451118867.680777
I1200
tp2104
a(F1451152492.27194
I1300
tp2105
a(F1451157940.035503
I1300
tp2106
a(F1451172978.922829
I1300
tp2107
asI-2147340572
(lp2108
sI-2147307801
(lp2109
sI-2147275030
(lp2110
sI-2147291410
(lp2111
sI-2147315984
(lp2112
(F1451116248.184103
I3900
tp2113
a(F1451118507.576933
I3900
tp2114
a(F1451118956.691742
I4300
tp2115
a(F1451150973.088658
I4400
tp2116
a(F1451155030.170482
I4400
tp2117
a(F1451171773.128031
I4500
tp2118
a(F1451174177.012919
I4400
tp2119
asI-2147463439
(lp2120
sI-2147283214
(lp2121
(F1451116634.085772
I800
tp2122
a(F1451118547.843024
I750
tp2123
a(F1451150992.339769
I850
tp2124
asI-2147315979
(lp2125
sI-2096976746
(lp2126
sI-2147283194
(lp2127
sI-2147306879
(lp2128
(F1451118326.643552
I1000
tp2129
a(F1451118927.16405
I1000
tp2130
a(F1451152307.53753
I1100
tp2131
a(F1451154936.157054
I1200
tp2132
a(F1451168829.392323
I1200
tp2133
a(F1451179635.275145
I1100
tp2134
asI-2147283190
(lp2135
sI-2147340527
(lp2136
sI-2147307754
(lp2137
sI-2147299561
(lp2138
(F1451116114.398525
I1000
tp2139
a(F1451188761.021405
I1100
tp2140
a(F1451209899.742182
I1300
tp2141
a(F1451215446.916063
I1300
tp2142
a(F1451235666.235186
I1300
tp2143
a(F1451323220.247548
I1500
tp2144
asI-2147315942
(lp2145
(F1451118394.52422
I650
tp2146
a(F1451152559.199982
I650
tp2147
asI-2147297318
(lp2148
sI-2147274978
(lp2149
sI-2147430618
(lp2150
sI-2147373272
(lp2151
sI-2097017044
(lp2152
sI-2147373267
(lp2153
sI-2147299537
(lp2154
(F1451117868.99525
I1300
tp2155
a(F1451118300.483321
I1300
tp2156
a(F1451151174.605847
I1500
tp2157
a(F1451154366.178614
I1500
tp2158
a(F1451157663.908696
I1500
tp2159
a(F1451168818.482767
I1500
tp2160
a(F1451172945.753586
I1500
tp2161
asI-2147299528
(lp2162
sI-2147430598
(lp2163
(F1451154747.604595
I850
tp2164
asI-2147291330
(lp2165
(F1451116544.152153
I8100
tp2166
a(F1451117659.87606
I8300
tp2167
a(F1451118154.423668
I8700
tp2168
a(F1451151051.126076
I9300
tp2169
a(F1451154283.781059
I8800
tp2170
a(F1451170767.275664
I9100
tp2171
a(F1451173322.564591
I8900
tp2172
asI-2147463359
(lp2173
(F1451152574.284996
I50500
tp2174
a(F1451171471.939405
I50000
tp2175
a(F1451173353.819602
I48500
tp2176
a(F1451185852.994083
I50000
tp2177
a(F1451237271.066351
I54000
tp2178
a(F1451323540.230735
I52000
tp2179
asI-2147348669
(lp2180
(F1451152099.421638
I850
tp2181
a(F1451154280.836319
I900
tp2182
a(F1451209045.468803
I900
tp2183
a(F1451212707.204823
I1000
tp2184
a(F1451237245.624302
I950
tp2185
a(F1451461599.859085
I1200
tp2186
asI-2147295946
(lp2187
sI-2147299514
(lp2188
(F1451152389.408642
I900
tp2189
a(F1451154400.447028
I900
tp2190
a(F1451170413.224551
I750
tp2191
a(F1451172892.116653
I800
tp2192
asI-2147307705
(lp2193
(F1451116252.585063
I3500
tp2194
a(F1451153885.166362
I3500
tp2195
a(F1451168722.305303
I3500
tp2196
a(F1451179602.220838
I3400
tp2197
a(F1451185941.739726
I3500
tp2198
a(F1451205349.274254
I3800
tp2199
asI-2147294580
(lp2200
(F1451154008.327062
I700
tp2201
asI-2147291315
(lp2202
(F1451118415.723202
I750
tp2203
a(F1451150830.503751
I800
tp2204
asI-2147324082
(lp2205
sI-2147299504
(lp2206
(F1451118253.196083
I800
tp2207
a(F1451150709.72605
I900
tp2208
a(F1451154029.897307
I900
tp2209
a(F1451172270.088698
I800
tp2210
a(F1451180991.048327
I900
tp2211
a(F1451212434.727566
I950
tp2212
asI-2147283119
(lp2213
(F1451151004.519611
I800
tp2214
a(F1451151127.197008
I800
tp2215
a(F1451155141.270697
I800
tp2216
asI-2147274926
(lp2217
(F1451118297.579936
I1100
tp2218
a(F1451118967.834748
I1100
tp2219
a(F1451152299.091806
I1300
tp2220
a(F1451154870.807665
I1300
tp2221
a(F1451168497.869394
I1300
tp2222
a(F1451172589.545531
I1400
tp2223
asI-2147291306
(lp2224
sI-2147307686
(lp2225
sI-2147283106
(lp2226
sI-2147291286
(lp2227
(F1451116105.223549
I700
tp2228
a(F1451118364.176826
I700
tp2229
a(F1451151151.838187
I700
tp2230
a(F1451154615.145452
I700
tp2231
a(F1451157735.987558
I700
tp2232
asI-2096959634
(lp2233
(F1451179933.557472
I245000
tp2234
asI-2147430538
(lp2235
sI-2097016957
(lp2236
sI-2147315836
(lp2237
sI-2147299448
(lp2238
(F1451173755.211383
I800
tp2239
asI-2147274871
(lp2240
sI-2147291251
(lp2241
sI-2147297297
(lp2242
sI-2096975206
(lp2243
sI-2147285008
(lp2244
sI-2147283038
(lp2245
(F1451151121.360057
I750
tp2246
a(F1451154001.531161
I800
tp2247
a(F1451170437.911833
I850
tp2248
asI-2147328698
(lp2249
sI-2147274840
(lp2250
(F1451116442.276333
I800
tp2251
a(F1451117832.510674
I850
tp2252
a(F1451152509.423924
I750
tp2253
a(F1451173381.134595
I750
tp2254
asI-2147291221
(lp2255
sI-2147307600
(lp2256
sI-2147304120
(lp2257
sI-2147340365
(lp2258
sI-2147299396
(lp2259
(F1451150913.323431
I700
tp2260
a(F1451153957.056886
I700
tp2261
asI-2147291203
(lp2262
(F1451116194.156787
I700
tp2263
a(F1451116343.980892
I700
tp2264
a(F1451152401.702189
I700
tp2265
asI-2096943170
(lp2266
sI-2147299393
(lp2267
sI-2147291200
(lp2268
(F1451116220.426547
I1000
tp2269
a(F1451151092.750054
I1000
tp2270
a(F1451154449.264725
I1100
tp2271
a(F1451168529.128028
I1100
tp2272
a(F1451171491.130593
I1100
tp2273
a(F1451173365.552156
I1100
tp2274
asI-2096951359
(lp2275
(F1451210501.355616
I86000
tp2276
asI-2147282271
(lp2277
sI-2147340342
(lp2278
sI-2147299381
(lp2279
(F1451168471.415246
I850
tp2280
asI-2147299377
(lp2281
sI-2147293192
(lp2282
(F1451154714.039433
I4500
tp2283
a(F1451178956.316594
I4500
tp2284
a(F1451209994.723122
I4500
tp2285
a(F1451585759.988307
I4900
tp2286
asI-2097000492
(lp2287
sI-2147291172
(lp2288
sI-2147307554
(lp2289
(F1451157701.811672
I700
tp2290
a(F1451172952.807124
I700
tp2291
asI-2147315743
(lp2292
(F1451118068.788359
I850
tp2293
a(F1451154234.902209
I800
tp2294
a(F1451168536.589406
I750
tp2295
a(F1451172600.96973
I1000
tp2296
asI-2147471389
(lp2297
sI-2147307544
(lp2298
sI-2147291156
(lp2299
sI-2147299336
(lp2300
(F1451116239.006691
I1000
tp2301
a(F1451117755.458383
I1000
tp2302
a(F1451118076.872751
I950
tp2303
a(F1451152497.879301
I1000
tp2304
a(F1451154543.87644
I950
tp2305
a(F1451157530.36984
I1100
tp2306
asI-2147291143
(lp2307
(F1451117668.156192
I1900
tp2308
a(F1451118965.063825
I1900
tp2309
a(F1451154617.885602
I2200
tp2310
a(F1451168505.436596
I2200
tp2311
a(F1451173280.385646
I2200
tp2312
asI-2147479550
(lp2313
sI-2147315705
(lp2314
(F1451152240.123701
I850
tp2315
a(F1451154411.48673
I900
tp2316
a(F1451168593.671534
I1000
tp2317
asI-2147315700
(lp2318
(F1451118199.62227
I8600
tp2319
a(F1451118206.575372
I8600
tp2320
a(F1451152616.94714
I8500
tp2321
a(F1451154701.996598
I8400
tp2322
a(F1451168984.142992
I8500
tp2323
a(F1451171759.743157
I8700
tp2324
asI-2147274737
(lp2325
sI-2147279528
(lp2326
sI-2147274734
(lp2327
(F1451157693.887388
I650
tp2328
asI-2147282924
(lp2329
sI-2147282922
(lp2330
sI-2147315689
(lp2331
sI-2147299304
(lp2332
(F1451116509.899597
I1400
tp2333
a(F1451118740.762957
I1400
tp2334
a(F1451153941.751238
I1500
tp2335
a(F1451174488.7759
I1700
tp2336
a(F1451178897.945344
I1600
tp2337
a(F1451186212.405252
I1500
tp2338
asI-2147291111
(lp2339
sI-2147282896
(lp2340
(F1451116176.905183
I1100
tp2341
a(F1451117693.198364
I1100
tp2342
a(F1451151240.75455
I1300
tp2343
a(F1451154163.606846
I1200
tp2344
a(F1451168748.601691
I1200
tp2345
asI-2147291085
(lp2346
(F1451117372.636573
I4200
tp2347
a(F1451117740.663443
I4100
tp2348
a(F1451151070.680071
I4900
tp2349
a(F1451154035.966386
I4500
tp2350
a(F1451168898.083775
I4800
tp2351
a(F1451174509.758146
I4700
tp2352
asI-2096959435
(lp2353
sI-2147430346
(lp2354
(F1451118079.599392
I850
tp2355
a(F1451118088.003257
I850
tp2356
a(F1451152207.764951
I900
tp2357
a(F1451154240.513942
I1000
tp2358
a(F1451171373.877432
I950
tp2359
a(F1451174160.548476
I1000
tp2360
asI-2147291080
(lp2361
(F1451154515.763081
I700
tp2362
asI-2147282883
(lp2363
sI-2147438529
(lp2364
(F1451118763.109539
I1000
tp2365
a(F1451154206.155699
I1000
tp2366
a(F1451171023.68374
I1000
tp2367
a(F1451186938.582593
I1000
tp2368
a(F1451209411.451406
I1000
tp2369
a(F1451323457.881791
I1100
tp2370
asI-2147299256
(lp2371
(F1451116492.368451
I1800
tp2372
a(F1451117953.86748
I1500
tp2373
a(F1451118159.841367
I1700
tp2374
a(F1451152585.908957
I1700
tp2375
a(F1451168767.794776
I1800
tp2376
a(F1451178560.696112
I1700
tp2377
asI-2096950601
(lp2378
sI-2147463092
(lp2379
sI-2147291055
(lp2380
(F1451117960.030647
I700
tp2381
a(F1451152461.948894
I700
tp2382
a(F1451154567.066298
I700
tp2383
a(F1451169070.65392
I700
tp2384
a(F1451186659.007641
I700
tp2385
a(F1451206904.078026
I700
tp2386
asI-2147372971
(lp2387
(F1451116325.524968
I750
tp2388
a(F1451118386.505731
I750
tp2389
a(F1451150725.260179
I800
tp2390
a(F1451154883.370746
I800
tp2391
a(F1451170763.585518
I800
tp2392
a(F1451173260.066833
I850
tp2393
asI-2147316020
(lp2394
(F1451154346.170396
I1200
tp2395
a(F1451181162.601024
I1200
tp2396
a(F1451208808.876764
I1200
tp2397
a(F1451213823.302433
I1200
tp2398
a(F1451585847.023232
I950
tp2399
asI-2147275418
(lp2400
sI-2147291033
(lp2401
sI-2147291028
(lp2402
sI-2147299217
(lp2403
(F1451154985.513403
I900
tp2404
a(F1451168517.118838
I900
tp2405
a(F1451174493.013183
I850
tp2406
a(F1451178471.316206
I900
tp2407
a(F1451208774.056628
I1000
tp2408
a(F1451213521.003655
I1100
tp2409
asI-2147299216
(lp2410
(F1451118726.249134
I1900
tp2411
a(F1451118746.658149
I1900
tp2412
a(F1451152512.183369
I2100
tp2413
a(F1451168478.996182
I2200
tp2414
a(F1451171437.716288
I2200
tp2415
a(F1451173393.272038
I2100
tp2416
asI-2147291019
(lp2417
sI-2147291013
(lp2418
sI-2147291010
(lp2419
sI-2147291007
(lp2420
(F1451150718.488082
I650
tp2421
a(F1451155011.072908
I650
tp2422
asI-2097106814
(lp2423
sI-2147307382
(lp2424
sI-2147438451
(lp2425
(F1451116700.720818
I1500
tp2426
a(F1451118012.314323
I1400
tp2427
a(F1451118148.907357
I1500
tp2428
a(F1451152293.267743
I1500
tp2429
a(F1451154499.234106
I1500
tp2430
a(F1451174087.947638
I1600
tp2431
asI-2147307378
(lp2432
sI-2147299176
(lp2433
sI-2147290981
(lp2434
(F1451116684.485731
I1200
tp2435
a(F1451151163.159725
I1400
tp2436
a(F1451169188.433004
I1400
tp2437
asI-2147307363
(lp2438
(F1451118349.75928
I900
tp2439
asI-2147299164
(lp2440
sI-2147282760
(lp2441
(F1451152153.110177
I700
tp2442
a(F1451154492.43392
I700
tp2443
a(F1451170728.318943
I700
tp2444
asI-2147274038
(lp2445
sI-2147290926
(lp2446
(F1451118173.358724
I800
tp2447
a(F1451154104.891794
I750
tp2448
asI-2147305435
(lp2449
sI-2147340061
(lp2450
sI-2147282699
(lp2451
(F1451116429.637745
I5500
tp2452
a(F1451117723.491265
I5500
tp2453
a(F1451117871.736101
I5500
tp2454
a(F1451118065.273694
I5500
tp2455
a(F1451150728.056084
I5800
tp2456
a(F1451154014.049233
I5900
tp2457
a(F1451157881.092265
I5800
tp2458
asI-2147307272
(lp2459
sI-2147307271
(lp2460
sI-2147372806
(lp2461
sI-2147290882
(lp2462
sI-2147299073
(lp2463
(F1451117809.173881
I1200
tp2464
a(F1451118341.096452
I1200
tp2465
a(F1451118536.507808
I1200
tp2466
a(F1451154119.576581
I1000
tp2467
a(F1451169298.427391
I1200
tp2468
asI-2147282686
(lp2469
sI-2147290874
(lp2470
(F1451118959.412026
I1900
tp2471
a(F1451174224.435445
I2200
tp2472
a(F1451186636.066489
I2100
tp2473
a(F1451209149.165002
I2400
tp2474
a(F1451213509.087972
I2400
tp2475
a(F1451235388.973844
I2400
tp2476
asI-2147340016
(lp2477
sI-2147290859
(lp2478
sI-2147348197
(lp2479
sI-2147348193
(lp2480
(F1451116702.941432
I1100
tp2481
a(F1451172903.770571
I1100
tp2482
asI-2080196560
(lp2483
sI-2147283007
(lp2484
(F1451116174.681746
I5400
tp2485
a(F1451116379.388023
I5500
tp2486
a(F1451151180.149453
I6000
tp2487
a(F1451153981.817783
I6000
tp2488
a(F1451169100.440534
I6000
tp2489
a(F1451171080.424319
I6000
tp2490
asI-2147462873
(lp2491
(F1451152318.417435
I1000
tp2492
a(F1451154693.605487
I950
tp2493
a(F1451168653.664536
I1000
tp2494
a(F1451172620.02122
I1100
tp2495
a(F1451178066.942603
I1100
tp2496
a(F1451209034.317744
I1000
tp2497
asI-2097012003
(lp2498
(F1451212029.047125
I18000
tp2499
asI-2097016525
(lp2500
(F1451154586.834147
I850
tp2501
a(F1451157564.506904
I950
tp2502
asI-2096988791
(lp2503
sI-2147282632
(lp2504
sI-2147339974
(lp2505
sI-2147462850
(lp2506
(F1451116124.810653
I650
tp2507
a(F1451154847.147688
I650
tp2508
asI-2147462848
(lp2509
sI-2147462847
(lp2510
(F1451152422.801211
I999000
tp2511
a(F1451586269.726966
I950000
tp2512
asI-2147316340
(lp2513
sI-2147430070
(lp2514
(F1451116530.846778
I750
tp2515
a(F1451118850.155183
I800
tp2516
a(F1451152453.400925
I750
tp2517
a(F1451154965.154321
I750
tp2518
a(F1451173778.256573
I800
tp2519
a(F1451186336.58587
I700
tp2520
asI-2096950958
(lp2521
sI-2147348141
(lp2522
(F1451154060.782066
I3100
tp2523
a(F1451173739.821795
I3100
tp2524
asI-2096950951
(lp2525
sI-2147360027
(lp2526
sI-2147307167
(lp2527
sI-2147430036
(lp2528
(F1451153893.728335
I1100
tp2529
a(F1451177796.336467
I1100
tp2530
a(F1451204949.268495
I1100
tp2531
a(F1451211877.221953
I1200
tp2532
a(F1451237282.522517
I1300
tp2533
a(F1451285331.558944
I1300
tp2534
asI-2147364496
(lp2535
(F1451118237.430147
I800
tp2536
asI-2147290765
(lp2537
(F1451150697.180257
I1600
tp2538
a(F1451151196.959628
I1600
tp2539
a(F1451155032.879437
I1600
tp2540
a(F1451168649.800231
I1600
tp2541
a(F1451174464.327858
I1600
tp2542
a(F1451178942.953798
I1600
tp2543
asI-2147315336
(lp2544
(F1451152338.248285
I1400
tp2545
a(F1451170429.682741
I1500
tp2546
asI-2147298944
(lp2547
(F1451118042.571971
I650
tp2548
a(F1451154079.482132
I650
tp2549
asI-2097008255
(lp2550
(F1451152251.350822
I44000
tp2551
asI-2147315322
(lp2552
(F1451154431.762523
I700
tp2553
asI-2147282553
(lp2554
sI-2147290744
(lp2555
sI-2147298932
(lp2556
sI-2147348082
(lp2557
(F1451116396.075011
I750
tp2558
a(F1451154416.998561
I700
tp2559
asI-2147274351
(lp2560
sI-2147282194
(lp2561
(F1451150884.878939
I850
tp2562
a(F1451169063.011115
I900
tp2563
asI-2147282530
(lp2564
sI-2147307102
(lp2565
(F1451116621.2668
I1200
tp2566
a(F1451152126.001786
I1300
tp2567
a(F1451170982.572084
I1400
tp2568
asI-2147307098
(lp2569
sI-2147372626
(lp2570
sI-2096942671
(lp2571
sI-2147274317
(lp2572
(F1451118690.237076
I1300
tp2573
a(F1451151246.394398
I1400
tp2574
a(F1451154110.306833
I1400
tp2575
a(F1451171365.126212
I1500
tp2576
asI-2096973995
(lp2577
sI-2147282505
(lp2578
sI-2147282504
(lp2579
sI-2147299937
(lp2580
(F1451116020.582603
I1400
tp2581
a(F1451150715.491248
I1500
tp2582
a(F1451151087.208582
I1500
tp2583
a(F1451154377.311751
I1600
tp2584
asI-2147282495
(lp2585
(F1451118658.090471
I1500
tp2586
a(F1451118945.627426
I1500
tp2587
a(F1451118970.575939
I1500
tp2588
a(F1451152588.932733
I1600
tp2589
a(F1451154838.958507
I1600
tp2590
a(F1451157767.8587
I1700
tp2591
asI-2147307068
(lp2592
(F1451212956.81697
I325000
tp2593
asI-2147298859
(lp2594
(F1451152413.994399
I650
tp2595
a(F1451155057.63406
I650
tp2596
asI-2147307048
(lp2597
sI-2096959015
(lp2598
(F1451152431.121462
I59000
tp2599
a(F1451168752.293877
I61500
tp2600
a(F1451171468.148516
I61000
tp2601
a(F1451179268.137658
I61000
tp2602
a(F1451186602.43027
I61000
tp2603
a(F1451323253.160348
I65000
tp2604
asI-2147438114
(lp2605
sI-2147290657
(lp2606
(F1451152660.548797
I700
tp2607
a(F1451155044.077484
I700
tp2608
a(F1451157800.019926
I700
tp2609
asI-2147307035
(lp2610
sI-2096959773
(lp2611
sI-2147331609
(lp2612
sI-2147307029
(lp2613
(F1451116257.901497
I950
tp2614
a(F1451117744.347786
I950
tp2615
a(F1451118099.058527
I1000
tp2616
a(F1451152556.507456
I1100
tp2617
a(F1451154524.33395
I1200
tp2618
a(F1451157893.288358
I1200
tp2619
a(F1451173349.911995
I1200
tp2620
asI-2147298833
(lp2621
sI-2080174680
(lp2622
sI-2147315213
(lp2623
(F1451118116.074695
I850
tp2624
a(F1451118124.163625
I850
tp2625
a(F1451152384.114867
I850
tp2626
a(F1451155024.447873
I800
tp2627
a(F1451168585.970132
I800
tp2628
a(F1451178044.868583
I800
tp2629
asI-2147372555
(lp2630
sI-2147297196
(lp2631
sI-2147298822
(lp2632
sI-2147307013
(lp2633
(F1451155085.639651
I38000
tp2634
a(F1451174076.048481
I38500
tp2635
a(F1451188780.821551
I38750
tp2636
a(F1451236871.525976
I40000
tp2637
asI-2147315204
(lp2638
(F1451152181.668756
I700
tp2639
asI-2147438074
(lp2640
sI-2096958959
(lp2641
sI-2147274216
(lp2642
sI-2147306972
(lp2643
(F1451116566.146977
I7500
tp2644
a(F1451117854.964961
I7400
tp2645
a(F1451117910.528266
I7400
tp2646
a(F1451118768.659416
I7400
tp2647
a(F1451152119.956542
I7600
tp2648
a(F1451170433.779855
I8300
tp2649
asI-2147290587
(lp2650
(F1451116250.377592
I3400
tp2651
a(F1451117385.281101
I3300
tp2652
a(F1451118948.366734
I3900
tp2653
a(F1451152169.85344
I3700
tp2654
a(F1451154130.482061
I3700
tp2655
a(F1451170422.028894
I4000
tp2656
asI-2147274199
(lp2657
(F1451152396.102204
I650
tp2658
a(F1451154313.453327
I700
tp2659
asI-2147282386
(lp2660
sI-2147298767
(lp2661
(F1451117785.926988
I1300
tp2662
a(F1451118707.656568
I1300
tp2663
a(F1451170363.657511
I1400
tp2664
a(F1451173338.431569
I1400
tp2665
a(F1451185985.051597
I1400
tp2666
a(F1451206109.107036
I1300
tp2667
asI-2147323338
(lp2668
(F1451154761.933833
I700
tp2669
a(F1451172277.759876
I700
tp2670
asI-2147290568
(lp2671
(F1451117684.775894
I36750
tp2672
a(F1451154660.79018
I39000
tp2673
a(F1451209057.147417
I39750
tp2674
a(F1451236352.950937
I40000
tp2675
a(F1451323518.262953
I40250
tp2676
a(F1451462116.160065
I39500
tp2677
asI-2147290566
(lp2678
(F1451118933.306925
I14000
tp2679
a(F1451151237.99925
I15000
tp2680
a(F1451154915.384312
I15000
tp2681
a(F1451179235.386937
I14500
tp2682
a(F1451186269.837424
I15000
tp2683
a(F1451210309.238743
I15250
tp2684
asI-2147478981
(lp2685
sI-2147347906
(lp2686
sI-2096967105
(lp2687
sI-2147274175
(lp2688
(F1451152274.717546
I700
tp2689
a(F1451155038.637492
I700
tp2690
a(F1451169020.613017
I700
tp2691
asI-2147436447
(lp2692
sI-2147315118
(lp2693
sI-2147282343
(lp2694
sI-2147306917
(lp2695
sI-2147290532
(lp2696
(F1451116213.870765
I800
tp2697
a(F1451154337.429597
I800
tp2698
a(F1451157803.781529
I800
tp2699
a(F1451169200.002106
I850
tp2700
a(F1451204962.314598
I850
tp2701
a(F1451208711.152546
I1000
tp2702
asI-2147306915
(lp2703
sI-2147315106
(lp2704
(F1451185887.921971
I29750
tp2705
a(F1451208725.097321
I29500
tp2706
a(F1451323589.162368
I30500
tp2707
a(F1451364744.118521
I32500
tp2708
a(F1451585833.677765
I28000
tp2709
asI-2147265949
(lp2710
(F1451154806.2347
I700
tp2711
a(F1451173245.499832
I700
tp2712
asI-2147290518
(lp2713
(F1451152483.511529
I4700
tp2714
a(F1451154672.354734
I4600
tp2715
a(F1451168771.573263
I4800
tp2716
asI-2147298707
(lp2717
(F1451118187.232198
I66000
tp2718
a(F1451152248.648014
I69000
tp2719
a(F1451171001.349204
I71500
tp2720
a(F1451209000.114208
I70000
tp2721
a(F1451237221.867918
I73000
tp2722
a(F1451461694.654561
I68500
tp2723
asI-2147298706
(lp2724
sI-2147298705
(lp2725
(F1451116656.771015
I7300
tp2726
a(F1451118062.371064
I7900
tp2727
a(F1451118294.360613
I7400
tp2728
a(F1451150797.118854
I7600
tp2729
a(F1451154867.972611
I7600
tp2730
a(F1451157627.573438
I8000
tp2731
a(F1451168848.185774
I7900
tp2732
a(F1451173318.858718
I8000
tp2733
asI-2147298699
(lp2734
(F1451118901.944217
I750
tp2735
a(F1451154507.808457
I800
tp2736
a(F1451157848.094255
I800
tp2737
a(F1451169251.43711
I900
tp2738
asI-2147282305
(lp2739
(F1451118040.030806
I650
tp2740
a(F1451155111.81066
I650
tp2741
asI-2080198015
(lp2742
(F1451150907.484218
I24750
tp2743
a(F1451169328.201313
I24250
tp2744
a(F1451179623.793856
I33000
tp2745
a(F1451204890.078083
I26750
tp2746
a(F1451208676.45174
I25250
tp2747
a(F1451235306.830783
I27000
tp2748
asI-2147274107
(lp2749
sI-2147290490
(lp2750
sI-2147274101
(lp2751
sI-2096958835
(lp2752
sI-2147290477
(lp2753
sI-2147306858
(lp2754
sI-2147290471
(lp2755
(F1451153950.636119
I650
tp2756
asI-2147462502
(lp2757
sI-2147315041
(lp2758
sI-2147315039
(lp2759
(F1451118372.42506
I3300
tp2760
a(F1451157713.32809
I3500
tp2761
a(F1451168894.381758
I3700
tp2762
a(F1451179314.41582
I3700
tp2763
a(F1451186717.673703
I3800
tp2764
a(F1451206286.72266
I3800
tp2765
asI-2147282269
(lp2766
sI-2147315027
(lp2767
sI-2147290450
(lp2768
sI-2147282249
(lp2769
(F1451118311.949624
I700
tp2770
a(F1451154552.879256
I800
tp2771
a(F1451169168.862667
I700
tp2772
asI-2147282248
(lp2773
sI-2147298628
(lp2774
(F1451116654.523265
I1100
tp2775
a(F1451151182.916922
I1200
tp2776
a(F1451154275.487361
I1200
tp2777
a(F1451168725.988962
I1200
tp2778
a(F1451172582.116605
I1200
tp2779
a(F1451186960.370068
I1100
tp2780
asI-2096943670
(lp2781
sI-2147272587
(lp2782
sI-2147278048
(lp2783
sI-2147265846
(lp2784
sI-2147314997
(lp2785
(F1451118698.129163
I6900
tp2786
a(F1451152549.725511
I7300
tp2787
a(F1451154997.372839
I7300
tp2788
a(F1451157943.766019
I7500
tp2789
a(F1451170343.235098
I7300
tp2790
a(F1451172879.962952
I7400
tp2791
asI-2147274028
(lp2792
(F1451118797.971168
I1300
tp2793
a(F1451151271.646786
I1300
tp2794
a(F1451170469.73646
I1500
tp2795
asI-2147476017
(lp2796
(F1451173682.372647
I700
tp2797
a(F1451186669.951916
I700
tp2798
a(F1451207022.247518
I700
tp2799
a(F1451213532.153546
I700
tp2800
a(F1451236895.558193
I700
tp2801
a(F1451461683.555213
I700
tp2802
asI-2096990352
(lp2803
sI-2147298587
(lp2804
sI-2096950546
(lp2805
sI-2147282193
(lp2806
(F1451116451.04912
I750
tp2807
a(F1451151056.705283
I800
tp2808
a(F1451153872.506972
I750
tp2809
a(F1451168909.384458
I800
tp2810
a(F1451170759.733706
I800
tp2811
asI-2147265804
(lp2812
sI-2147429635
(lp2813
sI-2147306754
(lp2814
sI-2147298559
(lp2815
(F1451152503.991428
I650
tp2816
a(F1451154906.890344
I700
tp2817
asI-2147298558
(lp2818
(F1451170330.890553
I700
tp2819
asI-2147273979
(lp2820
(F1451118055.994792
I700
tp2821
a(F1451154510.303103
I700
tp2822
a(F1451174101.145059
I700
tp2823
asI-2147290358
(lp2824
(F1451116631.892453
I800
tp2825
a(F1451152428.310005
I850
tp2826
a(F1451155015.550507
I800
tp2827
a(F1451173657.830084
I750
tp2828
asI-2147298545
(lp2829
(F1451152172.763545
I900
tp2830
asI-2147437806
(lp2831
(F1451152356.718939
I700
tp2832
a(F1451168631.976154
I700
tp2833
asI-2096958699
(lp2834
(F1451151137.45135
I235000
tp2835
asI-2147306729
(lp2836
sI-2147298513
(lp2837
sI-2147282143
(lp2838
sI-2147429598
(lp2839
(F1451152128.703467
I25250
tp2840
a(F1451155096.494962
I25250
tp2841
a(F1451171095.492733
I25250
tp2842
a(F1451188803.068786
I25750
tp2843
a(F1451206351.807208
I25500
tp2844
a(F1451212751.686304
I25250
tp2845
asI-2147429597
(lp2846
(F1451154289.102389
I800
tp2847
a(F1451173295.654194
I750
tp2848
asI-2147282140
(lp2849
sI-2147282138
(lp2850
(F1451154487.160734
I2000
tp2851
asI-2147305337
(lp2852
sI-2147298516
(lp2853
sI-2147294414
(lp2854
sI-2147306706
(lp2855
sI-2147282129
(lp2856
sI-2147306704
(lp2857
(F1451116128.365719
I1200
tp2858
a(F1451118664.379491
I1300
tp2859
a(F1451169271.467919
I1500
tp2860
a(F1451172534.294591
I1400
tp2861
asI-2147302357
(lp2862
sI-2147306699
(lp2863
sI-2147290310
(lp2864
sI-2147306693
(lp2865
sI-2147282115
(lp2866
(F1451116222.620013
I1800
tp2867
a(F1451117701.557888
I1800
tp2868
a(F1451150773.199981
I1900
tp2869
a(F1451155187.866171
I2000
tp2870
a(F1451171498.416096
I2000
tp2871
asI-2147282113
(lp2872
(F1451116103.225044
I4500
tp2873
a(F1451118096.32494
I4500
tp2874
a(F1451118553.282209
I3900
tp2875
a(F1451152228.933202
I4300
tp2876
a(F1451154363.32744
I4300
tp2877
a(F1451168597.532485
I4500
tp2878
a(F1451171061.567479
I4400
tp2879
a(F1451172887.762853
I4400
tp2880
asI-2147290300
(lp2881
(F1451173747.699588
I3400
tp2882
asI-2147290296
(lp2883
(F1451116559.598841
I4300
tp2884
a(F1451117951.30868
I4300
tp2885
a(F1451118344.304017
I4300
tp2886
a(F1451118858.557493
I4400
tp2887
a(F1451154380.315565
I4800
tp2888
a(F1451172687.7768
I4800
tp2889
asI-2147470518
(lp2890
sI-2147298485
(lp2891
sI-2147273904
(lp2892
sI-2147290287
(lp2893
sI-2147298474
(lp2894
sI-2147299867
(lp2895
sI-2147306655
(lp2896
sI-2147298454
(lp2897
sI-2147306645
(lp2898
(F1451116165.786008
I35000
tp2899
a(F1451118564.157127
I35250
tp2900
a(F1451118734.736442
I35000
tp2901
a(F1451152290.537076
I36000
tp2902
a(F1451154889.955306
I35000
tp2903
a(F1451168729.674006
I37000
tp2904
a(F1451174449.715784
I36500
tp2905
asI-2147306691
(lp2906
(F1451116615.666115
I800
tp2907
a(F1451117978.150873
I800
tp2908
a(F1451168925.179887
I1200
tp2909
asI-2147310786
(lp2910
sI-2147273866
(lp2911
sI-2147306629
(lp2912
sI-2147290240
(lp2913
(F1451116101.494652
I700
tp2914
a(F1451174429.378643
I700
tp2915
asI-2147298427
(lp2916
(F1451116284.66202
I1400
tp2917
a(F1451118178.763207
I1400
tp2918
a(F1451118318.41324
I1400
tp2919
a(F1451154133.661741
I1500
tp2920
a(F1451168822.180464
I1500
tp2921
a(F1451172961.001588
I1500
tp2922
asI-2147347578
(lp2923
sI-2147290228
(lp2924
sI-2147298409
(lp2925
(F1451118053.473693
I1200
tp2926
a(F1451118366.959869
I950
tp2927
a(F1451150703.229293
I1000
tp2928
a(F1451154687.880441
I1000
tp2929
a(F1451213498.388598
I1100
tp2930
a(F1451237201.863821
I1000
tp2931
asI-2096958652
(lp2932
sI-2147314765
(lp2933
sI-2147290179
(lp2934
(F1451150878.308919
I750
tp2935
a(F1451178980.587605
I800
tp2936
a(F1451189041.482072
I800
tp2937
a(F1451212729.018803
I800
tp2938
a(F1451462134.153412
I850
tp2939
asI-2147290174
(lp2940
sI-2147290173
(lp2941
sI-2147290172
(lp2942
sI-2147347510
(lp2943
sI-2147306543
(lp2944
sI-2147346268
(lp2945
sI-2147437606
(lp2946
sI-2147290144
(lp2947
(F1451152226.015589
I850
tp2948
a(F1451155193.27407
I850
tp2949
asI-2147273759
(lp2950
sI-2147322907
(lp2951
(F1451116570.768803
I700
tp2952
asI-2147331094
(lp2953
(F1451118256.075224
I2100
tp2954
a(F1451152544.192448
I2300
tp2955
a(F1451154782.994379
I2300
tp2956
a(F1451168887.015483
I2300
tp2957
asI-2147290123
(lp2958
(F1451118597.864996
I750
tp2959
a(F1451157795.697599
I750
tp2960
a(F1451169149.614539
I750
tp2961
a(F1451173773.998712
I700
tp2962
asI-2147290116
(lp2963
(F1451116287.012752
I750
tp2964
a(F1451118583.075245
I800
tp2965
a(F1451153868.575623
I750
tp2966
a(F1451172632.19723
I800
tp2967
a(F1451185877.236456
I800
tp2968
a(F1451206452.468316
I800
tp2969
asI-2147306499
(lp2970
sI-2147322882
(lp2971
(F1451154351.87396
I950
tp2972
a(F1451170986.313474
I950
tp2973
a(F1451178527.988798
I950
tp2974
a(F1451185408.322789
I900
tp2975
a(F1451205304.37288
I1200
tp2976
a(F1451211888.413793
I1000
tp2977
asI-2147347454
(lp2978
sI-2147322876
(lp2979
sI-2147314683
(lp2980
sI-2147322874
(lp2981
(F1451150967.731569
I700
tp2982
asI-2147306489
(lp2983
(F1451152310.236493
I700
tp2984
a(F1451169074.354431
I700
tp2985
asI-2147290347
(lp2986
(F1451116364.565942
I17250
tp2987
a(F1451118531.091309
I17500
tp2988
a(F1451151124.107816
I19250
tp2989
a(F1451153908.14806
I19250
tp2990
a(F1451172707.297489
I19250
tp2991
a(F1451178593.814789
I19000
tp2992
asI-2147298275
(lp2993
sI-2096950490
(lp2994
sI-2147316217
(lp2995
sI-2147371987
(lp2996
(F1451152464.554629
I650
tp2997
a(F1451154463.816454
I650
tp2998
a(F1451169165.280551
I650
tp2999
a(F1451172545.786309
I700
tp3000
asI-2096965453
(lp3001
(F1451168987.920398
I19000
tp3002
a(F1451364384.055803
I18750
tp3003
asI-2147314849
(lp3004
sI-2080190964
(lp3005
sI-2147273651
(lp3006
sI-2147273640
(lp3007
sI-2147281830
(lp3008
sI-2147314597
(lp3009
(F1451116661.585117
I2200
tp3010
a(F1451152263.410376
I2400
tp3011
a(F1451154794.68182
I2400
tp3012
asI-2147478435
(lp3013
sI-2147273632
(lp3014
sI-2147305285
(lp3015
sI-2147273601
(lp3016
(F1451150959.147749
I850
tp3017
a(F1451171344.742946
I800
tp3018
asI-2147281790
(lp3019
sI-2147281788
(lp3020
sI-2147281786
(lp3021
(F1451118015.105433
I2100
tp3022
a(F1451150921.509708
I2200
tp3023
a(F1451154197.242039
I2300
tp3024
a(F1451179646.398444
I2300
tp3025
a(F1451186313.26955
I2200
tp3026
a(F1451323231.385174
I2700
tp3027
asI-2096965439
(lp3028
(F1451237306.635924
I52000
tp3029
a(F1451461613.25258
I51500
tp3030
asI-2147279337
(lp3031
(F1451117938.113651
I1600
tp3032
a(F1451152142.007052
I1600
tp3033
a(F1451154657.653347
I1800
tp3034
a(F1451172262.585518
I1700
tp3035
asI-2147330919
(lp3036
(F1451116241.204396
I5100
tp3037
a(F1451152324.179337
I5600
tp3038
a(F1451155155.721644
I5600
tp3039
a(F1451171050.04421
I6000
tp3040
a(F1451174062.960539
I5500
tp3041
a(F1451181331.852847
I5400
tp3042
asI-2147289950
(lp3043
sI-2147429734
(lp3044
(F1451116627.810481
I900
tp3045
a(F1451155126.121137
I1100
tp3046
a(F1451177740.836297
I1100
tp3047
a(F1451186692.825729
I950
tp3048
a(F1451208735.865686
I1000
tp3049
a(F1451236883.020018
I1100
tp3050
asI-2096999253
(lp3051
(F1451154741.645049
I900
tp3052
a(F1451157634.044214
I800
tp3053
a(F1451170968.902413
I900
tp3054
a(F1451174112.87843
I1000
tp3055
asI-2147306322
(lp3056
(F1451116185.272708
I1200
tp3057
a(F1451117389.49891
I1200
tp3058
a(F1451152190.234708
I1200
tp3059
a(F1451154032.672731
I1200
tp3060
a(F1451169089.251186
I1300
tp3061
a(F1451189074.427767
I1300
tp3062
asI-2147289934
(lp3063
sI-2147281726
(lp3064
sI-2147330870
(lp3065
(F1451116372.171095
I700
tp3066
a(F1451117963.077569
I700
tp3067
a(F1451154439.71954
I700
tp3068
a(F1451169039.975153
I700
tp3069
asI-2147306290
(lp3070
(F1451118541.958238
I1300
tp3071
a(F1451118580.259497
I1300
tp3072
a(F1451118737.552545
I1300
tp3073
a(F1451152594.348068
I1400
tp3074
a(F1451154853.562777
I1400
tp3075
a(F1451157728.303174
I1400
tp3076
a(F1451172569.177611
I1600
tp3077
asI-2147289901
(lp3078
(F1451117860.466909
I1300
tp3079
a(F1451117928.050812
I1300
tp3080
a(F1451151223.307651
I1300
tp3081
a(F1451154057.719498
I1300
tp3082
a(F1451168578.476609
I1500
tp3083
a(F1451171701.475703
I1500
tp3084
a(F1451174220.573311
I1500
tp3085
asI-2147281706
(lp3086
(F1451116227.213243
I1400
tp3087
a(F1451118870.460601
I1400
tp3088
a(F1451152302.018553
I1600
tp3089
a(F1451154719.602867
I1700
tp3090
a(F1451157951.364652
I1600
tp3091
a(F1451178967.206561
I1600
tp3092
asI-2147370801
(lp3093
sI-2147314467
(lp3094
sI-2096943579
(lp3095
sI-2147281692
(lp3096
(F1451116388.290068
I700
tp3097
a(F1451152079.863955
I700
tp3098
a(F1451154836.130967
I700
tp3099
a(F1451170978.679978
I700
tp3100
a(F1451173384.714566
I700
tp3101
asI-2147306260
(lp3102
(F1451151033.468976
I2000
tp3103
a(F1451154930.293177
I2000
tp3104
a(F1451168624.389824
I2200
tp3105
a(F1451171712.794264
I2100
tp3106
a(F1451177730.026237
I2000
tp3107
a(F1451186739.564242
I2000
tp3108
asI-2097007378
(lp3109
sI-2147330831
(lp3110
sI-2147289862
(lp3111
sI-2147281666
(lp3112
sI-2147314432
(lp3113
sI-2080176565
(lp3114
sI-2147281660
(lp3115
sI-2147306235
(lp3116
(F1451118137.607792
I850
tp3117
a(F1451118490.838684
I900
tp3118
a(F1451152103.085971
I850
tp3119
a(F1451168589.660567
I1000
tp3120
a(F1451206319.188117
I850
tp3121
a(F1451210319.961946
I900
tp3122
asI-2147281653
(lp3123
(F1451151025.447128
I4300
tp3124
a(F1451154632.166543
I4200
tp3125
asI-2147330798
(lp3126
sI-2147330793
(lp3127
(F1451152329.489049
I700
tp3128
a(F1451154856.143935
I700
tp3129
asI-2147290234
(lp3130
sI-2080192291
(lp3131
sI-2147306191
(lp3132
(F1451150808.887828
I950
tp3133
a(F1451151076.505687
I900
tp3134
a(F1451174425.127772
I800
tp3135
a(F1451212321.656573
I900
tp3136
a(F1451236917.728693
I800
tp3137
a(F1451323494.084708
I900
tp3138
asI-2147306190
(lp3139
(F1451118085.303829
I750
tp3140
a(F1451150731.320468
I800
tp3141
a(F1451154623.448112
I800
tp3142
a(F1451169032.183067
I800
tp3143
a(F1451171685.879011
I800
tp3144
asI-2147289804
(lp3145
sI-2147314367
(lp3146
sI-2147257022
(lp3147
sI-2147269749
(lp3148
sI-2147344842
(lp3149
(F1451151007.20615
I700
tp3150
a(F1451154833.313521
I700
tp3151
a(F1451169172.404764
I700
tp3152
a(F1451172918.160511
I700
tp3153
asI-2147289786
(lp3154
(F1451152131.278381
I700
tp3155
a(F1451154774.605846
I700
tp3156
a(F1451168875.761317
I700
tp3157
asI-2147306167
(lp3158
sI-2147281590
(lp3159
sI-2147307977
(lp3160
sI-2147330740
(lp3161
(F1451154668.932335
I1400
tp3162
a(F1451171084.129535
I1400
tp3163
asI-2147281587
(lp3164
sI-2147273389
(lp3165
(F1451152150.421601
I650
tp3166
a(F1451155088.387101
I650
tp3167
asI-2147330732
(lp3168
sI-2147289767
(lp3169
sI-2147330726
(lp3170
sI-2096958114
(lp3171
sI-2147478177
(lp3172
(F1451117841.015966
I700
tp3173
a(F1451117919.860296
I700
tp3174
a(F1451118071.512537
I850
tp3175
a(F1451118488.298947
I850
tp3176
asI-2147306139
(lp3177
(F1451116589.827846
I2300
tp3178
a(F1451118715.686994
I2400
tp3179
a(F1451118844.744331
I2500
tp3180
a(F1451152266.594128
I2600
tp3181
a(F1451171418.299711
I2700
tp3182
a(F1451207362.971017
I2500
tp3183
asI-2147281561
(lp3184
(F1451116262.365053
I800
tp3185
a(F1451150785.956024
I750
tp3186
a(F1451150821.783158
I700
tp3187
a(F1451150824.507144
I700
tp3188
asI-2147347095
(lp3189
(F1451116398.176008
I700
tp3190
a(F1451169303.720703
I700
tp3191
a(F1451173307.436501
I700
tp3192
asI-2147273366
(lp3193
(F1451118836.50892
I1000
tp3194
a(F1451152619.678575
I1100
tp3195
a(F1451154800.562438
I1000
tp3196
a(F1451169160.853412
I1000
tp3197
a(F1451174189.337328
I1100
tp3198
asI-2147306129
(lp3199
sI-2096949899
(lp3200
sI-2096974472
(lp3201
(F1451116099.862756
I800
tp3202
a(F1451116370.088845
I800
tp3203
a(F1451154849.79455
I800
tp3204
a(F1451157790.442156
I800
tp3205
a(F1451169131.065096
I800
tp3206
asI-2147306115
(lp3207
sI-2096988295
(lp3208
(F1451178055.840321
I33500
tp3209
a(F1451236964.38471
I29000
tp3210
asI-2147281522
(lp3211
(F1451157861.734191
I1300
tp3212
a(F1451168972.80908
I1200
tp3213
asI-2147306095
(lp3214
(F1451151154.679782
I750
tp3215
a(F1451154153.592512
I750
tp3216
a(F1451172683.500062
I800
tp3217
asI-2147273324
(lp3218
sI-2147289706
(lp3219
sI-2147281513
(lp3220
(F1451154777.660587
I750
tp3221
a(F1451174071.0391
I700
tp3222
asI-2147281505
(lp3223
sI-2147330655
(lp3224
(F1451153862.402407
I700
tp3225
a(F1451169180.751002
I700
tp3226
asI-2147469916
(lp3227
(F1451116645.66637
I2300
tp3228
a(F1451118031.737739
I1900
tp3229
a(F1451118924.425969
I1900
tp3230
a(F1451152367.68842
I2200
tp3231
a(F1451155000.460876
I2100
tp3232
a(F1451168844.360169
I2200
tp3233
asI-2147306075
(lp3234
(F1451150995.157311
I700
tp3235
a(F1451154822.19816
I700
tp3236
a(F1451173716.676303
I700
tp3237
asI-2147330649
(lp3238
(F1451116546.736267
I950
tp3239
a(F1451118287.871989
I950
tp3240
a(F1451150783.280744
I950
tp3241
a(F1451150916.068893
I950
tp3242
a(F1451157586.274148
I950
tp3243
a(F1451169203.752131
I950
tp3244
asI-2147306070
(lp3245
(F1451118118.679476
I700
tp3246
a(F1451153987.767695
I700
tp3247
a(F1451169157.093788
I700
tp3248
asI-2147303865
(lp3249
(F1451154874.811598
I850
tp3250
a(F1451173223.553806
I850
tp3251
a(F1451213231.891335
I900
tp3252
a(F1451323600.516397
I950
tp3253
a(F1451359464.948087
I900
tp3254
asI-2147469905
(lp3255
(F1451118402.759263
I850
tp3256
a(F1451154505.101124
I950
tp3257
a(F1451157975.238082
I950
tp3258
a(F1451168718.563156
I950
tp3259
a(F1451212944.095765
I1100
tp3260
a(F1451238030.448915
I1100
tp3261
asI-2096949834
(lp3262
sI-2147306048
(lp3263
(F1451116486.839205
I700
tp3264
a(F1451150989.564727
I850
tp3265
a(F1451154901.358971
I850
tp3266
a(F1451168474.999069
I800
tp3267
asI-2147306044
(lp3268
(F1451116691.159512
I900
tp3269
a(F1451117835.240973
I950
tp3270
a(F1451118671.226333
I1200
tp3271
a(F1451150910.53747
I950
tp3272
a(F1451154968.097101
I1000
tp3273
a(F1451171087.89865
I1000
tp3274
asI-2096987231
(lp3275
sI-2147314232
(lp3276
(F1451116594.763351
I2400
tp3277
a(F1451154572.718328
I2500
tp3278
a(F1451174156.727178
I2500
tp3279
a(F1451178121.506689
I2500
tp3280
a(F1451188749.861803
I2400
tp3281
a(F1451205813.68488
I2800
tp3282
asI-2147306038
(lp3283
(F1451150938.574323
I1900
tp3284
a(F1451170307.54816
I1900
tp3285
a(F1451209126.195575
I2000
tp3286
a(F1451213558.172796
I2100
tp3287
a(F1451235411.556004
I2000
tp3288
a(F1451364372.926264
I2100
tp3289
asI-2147303859
(lp3290
sI-2147363374
(lp3291
(F1451155021.675625
I750
tp3292
asI-2147314216
(lp3293
sI-2147281447
(lp3294
sI-2147478054
(lp3295
sI-2147306013
(lp3296
(F1451152425.571973
I1700
tp3297
a(F1451154803.378428
I1800
tp3298
a(F1451179955.186089
I1700
tp3299
a(F1451185963.543688
I1700
tp3300
a(F1451206362.716545
I1700
tp3301
a(F1451212050.998477
I1800
tp3302
asI-2147289628
(lp3303
sI-2147330587
(lp3304
sI-2147289626
(lp3305
sI-2147306005
(lp3306
(F1451171357.71601
I700
tp3307
asI-2147306004
(lp3308
(F1451117676.52365
I800
tp3309
a(F1451157645.97563
I800
tp3310
a(F1451171019.662656
I800
tp3311
a(F1451181254.573324
I800
tp3312
a(F1451204902.149127
I800
tp3313
a(F1451210385.893536
I800
tp3314
asI-2147273235
(lp3315
sI-2147305999
(lp3316
sI-2147330569
(lp3317
(F1451209102.367736
I173000
tp3318
a(F1451215485.423704
I175000
tp3319
asI-2147363336
(lp3320
sI-2147437058
(lp3321
(F1451116414.029864
I700
tp3322
asI-2147379713
(lp3323
(F1451116463.810733
I700
tp3324
a(F1451118600.261813
I700
tp3325
a(F1451155118.0503
I700
tp3326
a(F1451172664.253354
I700
tp3327
asI-2147379712
(lp3328
sI-2147305982
(lp3329
(F1451116494.99052
I700
tp3330
a(F1451154564.278261
I700
tp3331
a(F1451168786.885049
I700
tp3332
asI-2147291561
(lp3333
sI-2147305965
(lp3334
(F1451118378.102125
I900
tp3335
a(F1451152480.770824
I900
tp3336
a(F1451179181.0081
I900
tp3337
a(F1451206065.260707
I900
tp3338
a(F1451210567.110368
I950
tp3339
a(F1451237339.909289
I950
tp3340
asI-2147273193
(lp3341
sI-2097120169
(lp3342
sI-2147299750
(lp3343
(F1451177697.457162
I44500
tp3344
a(F1451210537.193107
I43500
tp3345
a(F1451461706.111848
I43000
tp3346
a(F1451585748.921801
I40000
tp3347
asI-2147289569
(lp3348
sI-2147264981
(lp3349
sI-2147469769
(lp3350
sI-2147305925
(lp3351
sI-2096941487
(lp3352
sI-2147289513
(lp3353
(F1451152215.926384
I700
tp3354
a(F1451154259.928488
I700
tp3355
asI-2147330471
(lp3356
sI-2147295643
(lp3357
sI-2147305883
(lp3358
sI-2147371418
(lp3359
sI-2080174143
(lp3360
sI-2096982412
(lp3361
sI-2147314058
(lp3362
sI-2147314053
(lp3363
(F1451116121.592078
I950
tp3364
a(F1451118519.1319
I900
tp3365
a(F1451118566.847634
I900
tp3366
a(F1451151268.824963
I1100
tp3367
a(F1451154414.239272
I1100
tp3368
asI-2147314052
(lp3369
sI-2147371395
(lp3370
sI-2147281277
(lp3371
sI-2147314041
(lp3372
sI-2147331134
(lp3373
sI-2147436912
(lp3374
sI-2147289447
(lp3375
(F1451155168.58942
I650
tp3376
asI-2147289445
(lp3377
sI-2147330404
(lp3378
(F1451152447.939596
I750
tp3379
a(F1451154302.386881
I700
tp3380
a(F1451174091.673024
I700
tp3381
a(F1451179548.186336
I700
tp3382
a(F1451207407.785804
I750
tp3383
a(F1451212221.150652
I700
tp3384
asI-2147289439
(lp3385
(F1451117814.551342
I650
tp3386
a(F1451152213.217394
I650
tp3387
asI-2096949874
(lp3388
sI-2147273045
(lp3389
(F1451118589.820882
I950
tp3390
a(F1451154319.541497
I700
tp3391
asI-2147330388
(lp3392
sI-2147260131
(lp3393
sI-2147289419
(lp3394
sI-2147273031
(lp3395
sI-2147371332
(lp3396
(F1451116686.6811
I1900
tp3397
a(F1451117899.315897
I1900
tp3398
a(F1451150872.452237
I1900
tp3399
a(F1451151199.75501
I1900
tp3400
a(F1451153882.464395
I1900
tp3401
a(F1451157947.623368
I1900
tp3402
asI-2147363115
(lp3403
(F1451116311.409126
I3600
tp3404
a(F1451117846.510626
I3500
tp3405
a(F1451117907.690654
I4100
tp3406
a(F1451118891.225097
I3500
tp3407
a(F1451118921.325171
I3500
tp3408
a(F1451152608.052319
I3800
tp3409
a(F1451154469.705081
I3900
tp3410
a(F1451168976.514104
I3900
tp3411
a(F1451172578.315644
I3900
tp3412
asI-2147283333
(lp3413
(F1451153896.527776
I850
tp3414
a(F1451171031.212095
I700
tp3415
asI-2147313943
(lp3416
sI-2147313942
(lp3417
sI-2147281171
(lp3418
(F1451118470.634055
I1500
tp3419
a(F1451118831.003857
I1400
tp3420
a(F1451154489.865698
I1500
tp3421
asI-2147318419
(lp3422
(F1451116446.520758
I8300
tp3423
a(F1451117902.096998
I9000
tp3424
a(F1451118577.56661
I9000
tp3425
a(F1451150757.395991
I8900
tp3426
a(F1451151188.454404
I8900
tp3427
a(F1451171456.771356
I8900
tp3428
asI-2147313927
(lp3429
(F1451154696.454253
I1200
tp3430
a(F1451169315.345269
I1300
tp3431
asI-2147281155
(lp3432
(F1451116350.690847
I1200
tp3433
a(F1451155035.822973
I1400
tp3434
a(F1451169093.012376
I1400
tp3435
a(F1451171414.17006
I1300
tp3436
asI-2147297533
(lp3437
(F1451116314.058073
I1200
tp3438
a(F1451150803.266408
I1200
tp3439
a(F1451152647.139813
I1200
tp3440
a(F1451154578.13283
I1200
tp3441
a(F1451174197.680294
I1200
tp3442
asI-2147316095
(lp3443
(F1451152088.148534
I700
tp3444
a(F1451154942.590898
I700
tp3445
a(F1451173705.513677
I700
tp3446
asI-2147305714
(lp3447
(F1451150819.035034
I750
tp3448
a(F1451150924.746039
I800
tp3449
a(F1451151112.307814
I750
tp3450
a(F1451154124.859256
I800
tp3451
a(F1451172557.027743
I700
tp3452
asI-2147305713
(lp3453
sI-2147281133
(lp3454
(F1451118533.78506
I1800
tp3455
a(F1451172711.041712
I1900
tp3456
asI-2147295989
(lp3457
(F1451151143.635686
I700
tp3458
a(F1451154716.749297
I700
tp3459
asI-2147297502
(lp3460
(F1451118679.565867
I1600
tp3461
a(F1451118710.334491
I1600
tp3462
a(F1451118720.930242
I1600
tp3463
a(F1451152611.016433
I1700
tp3464
a(F1451154466.837127
I1800
tp3465
a(F1451168544.147792
I1700
tp3466
a(F1451170367.247109
I1600
tp3467
a(F1451172928.730411
I1800
tp3468
asI-2096965852
(lp3469
sI-2147297495
(lp3470
(F1451173666.445881
I900
tp3471
asI-2147281092
(lp3472
(F1451150694.351143
I12750
tp3473
a(F1451154690.787247
I13000
tp3474
a(F1451179291.201503
I12500
tp3475
a(F1451212658.858398
I14000
tp3476
a(F1451235438.591103
I14250
tp3477
a(F1451323242.21805
I14250
tp3478
asI-2147289283
(lp3479
sI-2147305665
(lp3480
(F1451168701.973849
I900
tp3481
asI-2147313856
(lp3482
(F1451152269.292595
I800
tp3483
asI-2147305643
(lp3484
(F1451116647.818898
I700
tp3485
a(F1451150836.239151
I700
tp3486
a(F1451154895.497957
I700
tp3487
a(F1451168551.779358
I700
tp3488
a(F1451173751.490975
I700
tp3489
a(F1451206914.858261
I800
tp3490
asI-2096965800
(lp3491
sI-2147289244
(lp3492
sI-2147289242
(lp3493
sI-2147322000
(lp3494
(F1451118303.373837
I1500
tp3495
a(F1451152343.517567
I1600
tp3496
a(F1451170384.49002
I1700
tp3497
asI-2147305597
(lp3498
sI-2147297395
(lp3499
sI-2147281006
(lp3500
sI-2096949352
(lp3501
sI-2147346534
(lp3502
(F1451169096.672843
I700
tp3503
asI-2147280996
(lp3504
(F1451152133.969521
I15750
tp3505
a(F1451171464.344373
I17000
tp3506
a(F1451177719.328451
I16500
tp3507
a(F1451188839.256447
I15750
tp3508
a(F1451212261.829308
I16500
tp3509
a(F1451235677.434
I17500
tp3510
asI-2147371106
(lp3511
sI-2147305563
(lp3512
(F1451116392.870027
I750
tp3513
asI-2147305561
(lp3514
sI-2147305560
(lp3515
(F1451116695.898489
I3100
tp3516
a(F1451117708.034202
I2900
tp3517
a(F1451150688.740993
I3200
tp3518
a(F1451169263.983606
I3200
tp3519
a(F1451185430.140833
I3500
tp3520
a(F1451189052.279067
I3200
tp3521
asI-2147325625
(lp3522
(F1451206043.905979
I916000
tp3523
a(F1451213219.307608
I919000
tp3524
asI-2147280976
(lp3525
sI-2147297352
(lp3526
sI-2147280963
(lp3527
(F1451117930.88004
I700
tp3528
a(F1451118082.43353
I700
tp3529
asI-2147305537
(lp3530
sI-2096973885
(lp3531
sI-2096931166
(lp3532
sI-2147272752
(lp3533
sI-2147272751
(lp3534
(F1451117780.422565
I1000
tp3535
asI-2147321894
(lp3536
(F1451118660.788312
I800
tp3537
a(F1451173011.907528
I700
tp3538
asI-2147346462
(lp3539
(F1451116119.520406
I2300
tp3540
a(F1451118636.820034
I2200
tp3541
a(F1451152517.787209
I2500
tp3542
a(F1451154360.618362
I2500
tp3543
a(F1451179978.474239
I2500
tp3544
a(F1451186728.430159
I2500
tp3545
asI-2147297303
(lp3546
sI-2147297301
(lp3547
sI-2147329710
(lp3548
sI-2147346449
(lp3549
sI-2147344728
(lp3550
sI-2147272713
(lp3551
(F1451118275.333073
I800
tp3552
a(F1451154091.039807
I900
tp3553
asI-2147305477
(lp3554
sI-2147321855
(lp3555
sI-2096973482
(lp3556
sI-2147272698
(lp3557
sI-2147321843
(lp3558
sI-2147297256
(lp3559
sI-2096964393
(lp3560
sI-2147297243
(lp3561
(F1451116302.104905
I700
tp3562
a(F1451152436.608246
I800
tp3563
a(F1451154920.73301
I700
tp3564
a(F1451169104.159958
I800
tp3565
asI-2147321816
(lp3566
(F1451117935.401204
I700
tp3567
a(F1451173016.306679
I700
tp3568
asI-2096974841
(lp3569
sI-2096932819
(lp3570
sI-2147346386
(lp3571
(F1451150841.718906
I700
tp3572
a(F1451154699.249218
I700
tp3573
a(F1451170483.186407
I700
tp3574
a(F1451173284.112071
I750
tp3575
asI-2147292835
(lp3576
(F1451117378.226487
I1400
tp3577
a(F1451168616.915546
I1600
tp3578
a(F1451171678.104311
I1500
tp3579
asI-2096973776
(lp3580
(F1451116409.783268
I2400
tp3581
a(F1451116479.032496
I2500
tp3582
a(F1451152622.456782
I2500
tp3583
a(F1451154606.551511
I2500
tp3584
a(F1451171054.129539
I2500
tp3585
asI-2147288737
(lp3586
sI-2147297218
(lp3587
(F1451157834.891667
I700
tp3588
a(F1451169196.124118
I700
tp3589
a(F1451173003.675904
I700
tp3590
asI-2147321785
(lp3591
(F1451169043.616747
I650
tp3592
a(F1451174411.133142
I650
tp3593
asI-2147272631
(lp3594
sI-2147305397
(lp3595
sI-2147289004
(lp3596
(F1451118786.622663
I900
tp3597
a(F1451157749.277789
I900
tp3598
a(F1451169336.738503
I900
tp3599
asI-2147302386
(lp3600
sI-2096940700
(lp3601
(F1451151133.818698
I2000
tp3602
a(F1451153875.25839
I2000
tp3603
a(F1451172899.772638
I2300
tp3604
asI-2147280799
(lp3605
(F1451154010.986496
I700
tp3606
asI-2147280797
(lp3607
sI-2147305370
(lp3608
sI-2147280791
(lp3609
(F1451116161.293994
I3300
tp3610
a(F1451116271.313156
I3300
tp3611
a(F1451116418.709376
I3300
tp3612
a(F1451118381.20208
I3300
tp3613
a(F1451118774.207799
I3300
tp3614
a(F1451151048.052971
I3500
tp3615
a(F1451154841.669948
I3500
tp3616
a(F1451171736.395299
I3500
tp3617
asI-2147280790
(lp3618
(F1451157705.803666
I750
tp3619
a(F1451173697.632245
I700
tp3620
asI-2147275074
(lp3621
(F1451154149.518307
I1300
tp3622
asI-2147302379
(lp3623
sI-2147280766
(lp3624
(F1451116659.371719
I850
tp3625
a(F1451118825.37767
I900
tp3626
a(F1451152500.798743
I850
tp3627
a(F1451154785.813904
I850
tp3628
a(F1451168980.282643
I900
tp3629
a(F1451174083.989103
I950
tp3630
asI-2147346297
(lp3631
sI-2147346287
(lp3632
sI-2096973678
(lp3633
sI-2147297127
(lp3634
(F1451174172.743943
I700
tp3635
asI-2147297124
(lp3636
(F1451153829.29367
I700
tp3637
asI-2080170299
(lp3638
sI-2147346270
(lp3639
sI-2147321692
(lp3640
(F1451118284.895544
I800
tp3641
a(F1451152179.119806
I900
tp3642
a(F1451168710.893957
I850
tp3643
a(F1451171666.957949
I900
tp3644
a(F1451185397.458536
I800
tp3645
a(F1451205204.661814
I900
tp3646
asI-2147272538
(lp3647
(F1451153902.235643
I8900
tp3648
a(F1451157698.074716
I9000
tp3649
a(F1451170352.107216
I9200
tp3650
asI-2147297101
(lp3651
(F1451118981.089187
I800
tp3652
a(F1451150770.457828
I850
tp3653
a(F1451155018.978046
I800
tp3654
a(F1451157685.332466
I800
tp3655
a(F1451179657.011476
I800
tp3656
a(F1451208746.980904
I850
tp3657
asI-2147297093
(lp3658
sI-2096949060
(lp3659
sI-2147299638
(lp3660
sI-2147346242
(lp3661
sI-2147297087
(lp3662
(F1451118267.194799
I1700
tp3663
a(F1451152069.652261
I2000
tp3664
a(F1451171034.933185
I2000
tp3665
a(F1451173785.827105
I2000
tp3666
a(F1451179689.267872
I1900
tp3667
a(F1451189086.426978
I2000
tp3668
asI-2147305276
(lp3669
(F1451116126.623985
I1100
tp3670
a(F1451116580.797077
I1100
tp3671
asI-2147345688
(lp3672
sI-2147297079
(lp3673
sI-2147288883
(lp3674
(F1451118146.135437
I11500
tp3675
a(F1451151001.679069
I12250
tp3676
a(F1451151171.858871
I12250
tp3677
a(F1451153959.910184
I12250
tp3678
a(F1451157935.803958
I12250
tp3679
a(F1451168872.053834
I12750
tp3680
asI-2147321649
(lp3681
sI-2147297067
(lp3682
sI-2147305255
(lp3683
(F1451154788.617293
I850
tp3684
a(F1451168582.194395
I700
tp3685
a(F1451172698.848622
I850
tp3686
asI-2147272472
(lp3687
(F1451152605.327227
I900
tp3688
a(F1451155102.228743
I850
tp3689
a(F1451170449.933099
I900
tp3690
asI-2147305232
(lp3691
(F1451118685.476141
I900
tp3692
a(F1451118929.945453
I900
tp3693
a(F1451152591.656712
I1000
tp3694
a(F1451173369.279287
I1000
tp3695
asI-2147305223
(lp3696
sI-2147297021
(lp3697
(F1451116381.587216
I1000
tp3698
asI-2147305086
(lp3699
(F1451152373.107451
I750
tp3700
a(F1451168494.170055
I800
tp3701
asI-2097007571
(lp3702
sI-2147346154
(lp3703
(F1451117681.98184
I950
tp3704
a(F1451150875.416989
I800
tp3705
a(F1451157783.121525
I800
tp3706
a(F1451171693.509395
I800
tp3707
a(F1451174116.749641
I750
tp3708
asI-2147288803
(lp3709
sI-2096948962
(lp3710
sI-2147346142
(lp3711
sI-2147296976
(lp3712
(F1451150998.84978
I1000
tp3713
a(F1451169243.687917
I800
tp3714
a(F1451174141.351794
I700
tp3715
asI-2147305161
(lp3716
(F1451154595.119181
I700
tp3717
a(F1451170358.442499
I800
tp3718
asI-2147288763
(lp3719
sI-2096989877
(lp3720
(F1451118814.330126
I800
tp3721
a(F1451152340.783671
I800
tp3722
a(F1451154744.076655
I800
tp3723
a(F1451157740.230927
I800
tp3724
asI-2147305139
(lp3725
(F1451150791.603936
I1100
tp3726
a(F1451154707.793677
I1100
tp3727
a(F1451169260.157728
I1100
tp3728
a(F1451181309.661559
I1100
tp3729
a(F1451186291.411491
I1100
tp3730
a(F1451210276.429054
I1100
tp3731
asI-2147329714
(lp3732
(F1451116129.961552
I650
tp3733
a(F1451152636.535539
I650
tp3734
a(F1451168540.358614
I650
tp3735
a(F1451171494.677123
I650
tp3736
a(F1451174164.321554
I650
tp3737
asI-2147313328
(lp3738
sI-2147362478
(lp3739
(F1451172703.375962
I700
tp3740
asI-2147321517
(lp3741
(F1451118623.305121
I750
tp3742
a(F1451155063.304662
I700
tp3743
a(F1451174185.103814
I700
tp3744
asI-2147305130
(lp3745
(F1451116586.461524
I6900
tp3746
a(F1451117843.792525
I6200
tp3747
a(F1451118918.530956
I6500
tp3748
a(F1451153936.270149
I6700
tp3749
a(F1451168879.503726
I7100
tp3750
a(F1451171111.237304
I6900
tp3751
a(F1451174193.097183
I7200
tp3752
asI-2147296576
(lp3753
sI-2147377435
(lp3754
(F1451116461.334267
I800
tp3755
a(F1451118631.481348
I800
tp3756
a(F1451118808.745122
I800
tp3757
a(F1451151202.715239
I800
tp3758
a(F1451157709.442066
I750
tp3759
asI-2147362463
(lp3760
sI-2147280542
(lp3761
sI-2080163484
(lp3762
sI-2147305113
(lp3763
(F1451152161.60807
I700
tp3764
a(F1451154982.815842
I700
tp3765
asI-2147362455
(lp3766
sI-2147288716
(lp3767
(F1451116640.720189
I750
tp3768
a(F1451118524.539655
I850
tp3769
a(F1451152523.587321
I1000
tp3770
a(F1451154334.163799
I850
tp3771
a(F1451170441.4824
I850
tp3772
a(F1451173299.953653
I950
tp3773
asI-2147272328
(lp3774
(F1451171483.499238
I700
tp3775
asI-2147296903
(lp3776
sI-2147313280
(lp3777
(F1451150861.293705
I1100
tp3778
a(F1451154858.876127
I1100
tp3779
a(F1451157689.394871
I1200
tp3780
asI-2147313279
(lp3781
(F1451155123.334518
I850
tp3782
a(F1451173637.737479
I750
tp3783
asI-2147313278
(lp3784
(F1451152478.220771
I700
tp3785
asI-2080183913
(lp3786
(F1451212389.574341
I775000
tp3787
asI-2147288691
(lp3788
(F1451116201.872889
I850
tp3789
a(F1451117671.194944
I850
tp3790
a(F1451153834.791443
I1000
tp3791
a(F1451157839.728839
I1000
tp3792
a(F1451168920.979914
I950
tp3793
asI-2096936284
(lp3794
sI-2147370603
(lp3795
sI-2080207120
(lp3796
(F1451285342.638395
I200000
tp3797
asI-2147288669
(lp3798
sI-2147296859
(lp3799
(F1451118975.993868
I700
tp3800
a(F1451152218.9559
I700
tp3801
a(F1451154262.712931
I700
tp3802
a(F1451174214.833197
I700
tp3803
asI-2147272280
(lp3804
(F1451116234.198729
I900
tp3805
a(F1451154316.686591
I900
tp3806
a(F1451157873.481148
I850
tp3807
a(F1451172616.311271
I850
tp3808
asI-2147305045
(lp3809
(F1451150929.727121
I17250
tp3810
a(F1451173782.10918
I17000
tp3811
a(F1451179569.543765
I17000
tp3812
a(F1451212284.368624
I17000
tp3813
a(F1451216247.426747
I18000
tp3814
a(F1451237328.866008
I18750
tp3815
asI-2147305044
(lp3816
sI-2147280465
(lp3817
sI-2147296847
(lp3818
(F1451116623.510814
I850
tp3819
a(F1451118248.353973
I850
tp3820
a(F1451118502.106575
I750
tp3821
a(F1451155144.058262
I950
tp3822
a(F1451168783.013276
I950
tp3823
a(F1451172975.161408
I900
tp3824
asI-2147296843
(lp3825
(F1451117972.765357
I1200
tp3826
a(F1451154160.130558
I950
tp3827
a(F1451157637.894626
I950
tp3828
a(F1451172597.135658
I1000
tp3829
asI-2096962487
(lp3830
sI-2147321408
(lp3831
(F1451116211.531747
I2000
tp3832
a(F1451150780.336627
I2200
tp3833
a(F1451151255.365594
I2200
tp3834
a(F1451154825.033377
I2200
tp3835
a(F1451168706.712605
I2200
tp3836
asI-2147305023
(lp3837
sI-2147296830
(lp3838
sI-2147345977
(lp3839
sI-2097045769
(lp3840
(F1451168756.649029
I24750
tp3841
asI-2147345971
(lp3842
sI-2147296816
(lp3843
(F1451154609.514568
I900
tp3844
a(F1451171389.222332
I1100
tp3845
asI-2147295494
(lp3846
sI-2147337759
(lp3847
sI-2147460633
(lp3848
(F1451154481.619141
I700
tp3849
a(F1451172941.768129
I700
tp3850
asI-2147321368
(lp3851
sI-2147313167
(lp3852
(F1451153944.701622
I800
tp3853
a(F1451179369.623776
I900
tp3854
a(F1451186380.536867
I750
tp3855
a(F1451212718.242214
I850
tp3856
a(F1451235620.029496
I850
tp3857
a(F1451349851.080067
I850
tp3858
asI-2147304969
(lp3859
(F1451116385.900491
I700
tp3860
asI-2147321351
(lp3861
sI-2147288562
(lp3862
sI-2147280368
(lp3863
sI-2147288558
(lp3864
(F1451151165.914958
I650
tp3865
a(F1451154651.879455
I650
tp3866
a(F1451157896.830113
I650
tp3867
asI-2147321319
(lp3868
sI-2147294118
(lp3869
sI-2147263967
(lp3870
sI-2147280349
(lp3871
(F1451116264.407438
I850
tp3872
a(F1451116598.404789
I900
tp3873
asI-2147321301
(lp3874
(F1451116602.987263
I750
tp3875
a(F1451153990.539905
I850
tp3876
a(F1451178932.166218
I800
tp3877
a(F1451186682.090799
I750
tp3878
a(F1451204973.119996
I850
tp3879
a(F1451208795.923119
I900
tp3880
asI-2147345866
(lp3881
sI-2147345863
(lp3882
(F1451169016.853286
I800
tp3883
asI-2147304902
(lp3884
sI-2147280324
(lp3885
sI-2147296706
(lp3886
(F1451117382.587501
I3800
tp3887
a(F1451117893.837063
I4500
tp3888
a(F1451173723.923544
I3900
tp3889
a(F1451178865.1955
I3800
tp3890
a(F1451186325.286609
I3800
tp3891
a(F1451207350.841118
I3800
tp3892
asI-2147272267
(lp3893
(F1451116012.43257
I950
tp3894
a(F1451150953.802681
I1100
tp3895
a(F1451154027.164388
I1100
tp3896
a(F1451174145.174408
I1100
tp3897
asI-2096989631
(lp3898
sI-2147296695
(lp3899
(F1451152540.172879
I700
tp3900
asI-2147313078
(lp3901
sI-2147296687
(lp3902
(F1451154265.25298
I700
tp3903
a(F1451168608.891442
I700
tp3904
asI-2147337637
(lp3905
(F1451152520.331243
I700
tp3906
a(F1451168955.382713
I750
tp3907
asI-2147313051
(lp3908
sI-2147296666
(lp3909
sI-2147321239
(lp3910
(F1451150944.138229
I800
tp3911
a(F1451155027.211448
I800
tp3912
a(F1451157843.897595
I700
tp3913
asI-2096948624
(lp3914
(F1451116352.895336
I800
tp3915
a(F1451169239.847384
I850
tp3916
asI-2147272073
(lp3917
sI-2147345794
(lp3918
sI-2147430634
(lp3919
sI-2147296605
(lp3920
sI-2147312984
(lp3921
sI-2147476822
(lp3922
sI-2147296596
(lp3923
(F1451153854.773656
I700
tp3924
a(F1451157856.53738
I750
tp3925
a(F1451169223.806796
I800
tp3926
asI-2147337537
(lp3927
sI-2096964928
(lp3928
sI-2147452216
(lp3929
(F1451157830.993587
I700
tp3930
a(F1451168601.229598
I750
tp3931
a(F1451170405.566293
I750
tp3932
a(F1451206341.031502
I700
tp3933
a(F1451210512.83494
I700
tp3934
a(F1451364805.829985
I700
tp3935
asI-2147296564
(lp3936
(F1451118521.818131
I1200
tp3937
a(F1451152649.835301
I1100
tp3938
a(F1451168996.280015
I1300
tp3939
a(F1451172258.824448
I1200
tp3940
asI-2147280165
(lp3941
sI-2147280163
(lp3942
sI-2147280162
(lp3943
(F1451116693.656102
I700
tp3944
a(F1451154004.216825
I750
tp3945
asI-2147271960
(lp3946
(F1451116167.986853
I1600
tp3947
a(F1451151053.900155
I1500
tp3948
a(F1451153890.996279
I1500
tp3949
a(F1451170396.764101
I1600
tp3950
asI-2147312915
(lp3951
(F1451118184.535675
I1200
tp3952
a(F1451150806.177491
I1300
tp3953
a(F1451151169.150373
I1300
tp3954
a(F1451151215.224508
I1300
tp3955
a(F1451168525.385636
I1300
tp3956
a(F1451171487.417617
I1300
tp3957
asI-2097041624
(lp3958
sI-2147343233
(lp3959
sI-2096964868
(lp3960
sI-2147280120
(lp3961
(F1451154127.737125
I700
tp3962
asI-2097103060
(lp3963
(F1451586257.435671
I230000
tp3964
asI-2147370226
(lp3965
(F1451117990.896165
I750
tp3966
a(F1451153865.687549
I750
tp3967
asI-2147312878
(lp3968
(F1451154454.707481
I900
tp3969
a(F1451172538.106939
I950
tp3970
asI-2147280097
(lp3971
(F1451152580.527753
I950
tp3972
asI-2147288287
(lp3973
sI-2147288285
(lp3974
(F1451117698.839878
I700
tp3975
a(F1451173252.913066
I700
tp3976
asI-2096956635
(lp3977
sI-2147312851
(lp3978
(F1451118731.999931
I800
tp3979
a(F1451151217.95332
I800
tp3980
a(F1451154575.429962
I850
tp3981
a(F1451181208.022099
I750
tp3982
a(F1451209136.913399
I850
tp3983
a(F1451213242.898327
I900
tp3984
asI-2147312847
(lp3985
sI-2147312846
(lp3986
sI-2096950182
(lp3987
sI-2147280074
(lp3988
sI-2147312833
(lp3989
sI-2147344586
(lp3990
sI-2147345567
(lp3991
sI-2147378330
(lp3992
sI-2147280021
(lp3993
(F1451116435.017253
I900
tp3994
a(F1451152347.184469
I900
tp3995
a(F1451154254.530045
I900
tp3996
a(F1451168836.774416
I950
tp3997
asI-2147337352
(lp3998
sI-2147345538
(lp3999
(F1451154391.826094
I800
tp4000
a(F1451173329.853689
I900
tp4001
asI-2147261291
(lp4002
sI-2147312758
(lp4003
(F1451116123.281631
I4000
tp4004
a(F1451116348.063388
I4000
tp4005
a(F1451117852.185419
I3900
tp4006
a(F1451151059.684301
I4400
tp4007
a(F1451151101.184457
I4400
tp4008
a(F1451154597.885969
I4400
tp4009
a(F1451173214.605589
I4500
tp4010
asI-2147345525
(lp4011
(F1451150866.908259
I700
tp4012
asI-2147277672
(lp4013
sI-2147271786
(lp4014
(F1451173793.590082
I700
tp4015
asI-2096970598
(lp4016
sI-2147294053
(lp4017
(F1451154994.555799
I700
tp4018
a(F1451173685.98207
I700
tp4019
asI-2147279960
(lp4020
sI-2096962404
(lp4021
(F1451211977.568183
I330000
tp4022
a(F1451462163.222294
I271000
tp4023
asI-2147312725
(lp4024
sI-2147296325
(lp4025
sI-2147296324
(lp4026
(F1451116416.07402
I900
tp4027
a(F1451152234.796284
I700
tp4028
a(F1451154328.056886
I850
tp4029
a(F1451173388.548461
I900
tp4030
asI-2147337271
(lp4031
sI-2147296301
(lp4032
(F1451118510.315794
I800
tp4033
a(F1451153924.68098
I850
tp4034
asI-2096967856
(lp4035
sI-2147291311
(lp4036
sI-2147279891
(lp4037
sI-2147378194
(lp4038
(F1451117881.457995
I800
tp4039
a(F1451170318.812395
I850
tp4040
asI-2147279873
(lp4041
sI-2147288062
(lp4042
sI-2147337209
(lp4043
(F1451118023.49437
I800
tp4044
a(F1451155091.221808
I1100
tp4045
a(F1451169176.171653
I850
tp4046
a(F1451179191.717963
I800
tp4047
a(F1451206485.126893
I850
tp4048
a(F1451211914.947962
I950
tp4049
asI-2147312632
(lp4050
sI-2147312630
(lp4051
sI-2147329014
(lp4052
sI-2147320813
(lp4053
(F1451116266.824093
I3100
tp4054
a(F1451118504.877431
I3100
tp4055
a(F1451150833.369281
I3300
tp4056
a(F1451157779.213789
I3300
tp4057
a(F1451206474.275594
I3300
tp4058
a(F1451213157.931575
I3500
tp4059
asI-2147279852
(lp4060
sI-2147337188
(lp4061
(F1451116420.751604
I700
tp4062
a(F1451118242.786578
I700
tp4063
a(F1451118852.704087
I700
tp4064
a(F1451152386.840847
I700
tp4065
a(F1451174120.566166
I700
tp4066
asI-2147337166
(lp4067
(F1451172648.126878
I700
tp4068
asI-2147279009
(lp4069
(F1451117996.536487
I750
tp4070
a(F1451118561.453435
I700
tp4071
a(F1451153969.456226
I800
tp4072
a(F1451171405.887478
I800
tp4073
a(F1451185464.087405
I700
tp4074
a(F1451213475.506681
I800
tp4075
asI-2147296191
(lp4076
sI-2147279805
(lp4077
sI-2147361715
(lp4078
sI-2147320753
(lp4079
(F1451153984.925301
I25000
tp4080
a(F1451171670.660638
I23750
tp4081
a(F1451206989.391908
I22750
tp4082
a(F1451213253.932243
I23000
tp4083
a(F1451364720.986517
I24750
tp4084
a(F1451585799.175198
I22500
tp4085
asI-2147337135
(lp4086
sI-2147361709
(lp4087
(F1451152602.589961
I25500
tp4088
a(F1451157590.456919
I25500
tp4089
a(F1451169267.738197
I25500
tp4090
a(F1451171452.575614
I27250
tp4091
a(F1451174441.501615
I25750
tp4092
a(F1451179667.705172
I25750
tp4093
asI-2147451817
(lp4094
sI-2147361704
(lp4095
(F1451116376.841031
I11000
tp4096
a(F1451116575.246269
I11000
tp4097
a(F1451150712.566252
I11500
tp4098
a(F1451150986.847985
I12000
tp4099
a(F1451172542.007423
I12000
tp4100
a(F1451185974.253997
I11500
tp4101
asI-2096980123
(lp4102
(F1451118048.030516
I44000
tp4103
asI-2147337118
(lp4104
(F1451150855.955523
I15000
tp4105
a(F1451173237.93026
I15500
tp4106
a(F1451178991.352647
I15250
tp4107
a(F1451205768.307677
I15000
tp4108
a(F1451210396.974359
I15250
tp4109
a(F1451364705.448201
I17000
tp4110
asI-2147339026
(lp4111
sI-2147287961
(lp4112
sI-2147337112
(lp4113
(F1451116465.997228
I1900
tp4114
a(F1451116698.112082
I1900
tp4115
a(F1451118723.556911
I2000
tp4116
a(F1451152312.944032
I2100
tp4117
a(F1451168928.939731
I2200
tp4118
a(F1451171441.474527
I2200
tp4119
asI-2147279760
(lp4120
(F1451152375.822974
I700
tp4121
a(F1451173229.205652
I700
tp4122
asI-2096952811
(lp4123
sI-2147337086
(lp4124
(F1451118026.268078
I10500
tp4125
a(F1451178110.795063
I11000
tp4126
a(F1451186190.835623
I10750
tp4127
a(F1451206329.93727
I11000
tp4128
a(F1451210734.47183
I11250
tp4129
a(F1451236906.597476
I12000
tp4130
asI-2147263353
(lp4131
sI-2147291282
(lp4132
(F1451117829.459238
I17000
tp4133
a(F1451152222.926844
I18500
tp4134
a(F1451154156.880234
I18500
tp4135
a(F1451157967.140245
I18500
tp4136
a(F1451168779.170787
I18500
tp4137
a(F1451171069.050628
I18500
tp4138
asI-2096939875
(lp4139
(F1451116323.070374
I800
tp4140
a(F1451173720.210144
I800
tp4141
asI-2147345236
(lp4142
(F1451118806.19725
I1100
tp4143
a(F1451150901.921484
I1000
tp4144
a(F1451154909.666408
I1100
tp4145
asI-2147296078
(lp4146
sI-2147271498
(lp4147
sI-2147279683
(lp4148
sI-2147345199
(lp4149
(F1451118789.373853
I800
tp4150
a(F1451118792.093333
I800
tp4151
a(F1451118794.779457
I800
tp4152
a(F1451118800.696353
I800
tp4153
a(F1451118803.380316
I800
tp4154
a(F1451118817.008158
I800
tp4155
a(F1451152296.305357
I750
tp4156
a(F1451155180.70077
I750
tp4157
asI-2147345885
(lp4158
sI-2147273522
(lp4159
sI-2147296041
(lp4160
(F1451116674.476837
I700
tp4161
a(F1451155054.963787
I700
tp4162
asI-2147345186
(lp4163
sI-2147430243
(lp4164
sI-2147271450
(lp4165
sI-2080193326
(lp4166
(F1451152254.998734
I42500
tp4167
asI-2147279624
(lp4168
(F1451151252.47196
I700
tp4169
a(F1451154203.19367
I700
tp4170
asI-2147271430
(lp4171
(F1451116273.565686
I1500
tp4172
a(F1451116299.721663
I1500
tp4173
a(F1451117802.731707
I1500
tp4174
a(F1451155108.834514
I1600
tp4175
a(F1451177774.558691
I1600
tp4176
a(F1451208305.227018
I1700
tp4177
asI-2096988289
(lp4178
sI-2147300364
(lp4179
(F1451151243.524018
I1000
tp4180
a(F1451154484.384141
I900
tp4181
a(F1451178875.904496
I1000
tp4182
a(F1451189030.408507
I950
tp4183
a(F1451205293.281026
I1200
tp4184
a(F1451364407.75029
I950
tp4185
asI-2147279616
(lp4186
sI-2147345151
(lp4187
(F1451169153.185169
I700
tp4188
asI-2096989653
(lp4189
sI-2147271417
(lp4190
sI-2080172132
(lp4191
sI-2147345141
(lp4192
sI-2147279598
(lp4193
sI-2147287789
(lp4194
sI-2096956139
(lp4195
sI-2147287784
(lp4196
(F1451151045.031966
I94500
tp4197
a(F1451171747.832682
I99000
tp4198
a(F1451205849.509564
I97000
tp4199
a(F1451364433.832057
I102000
tp4200
a(F1451462151.740088
I94000
tp4201
a(F1451585723.974937
I93500
tp4202
asI-2147345116
(lp4203
(F1451116554.6573
I700
tp4204
a(F1451117726.496597
I700
tp4205
a(F1451151266.102789
I700
tp4206
a(F1451154423.454242
I700
tp4207
asI-2147295960
(lp4208
sI-2147271381
(lp4209
sI-2096967800
(lp4210
sI-2147279566
(lp4211
sI-2147336907
(lp4212
(F1451152642.977386
I850
tp4213
a(F1451154904.111345
I950
tp4214
a(F1451157649.891064
I850
tp4215
a(F1451171027.418425
I900
tp4216
asI-2147312330
(lp4217
(F1451168825.717783
I700
tp4218
asI-2147307639
(lp4219
sI-2147336900
(lp4220
(F1451117986.415549
I750
tp4221
a(F1451154980.2741
I800
tp4222
a(F1451178143.529846
I800
tp4223
a(F1451206950.165699
I850
tp4224
a(F1451212355.653115
I850
tp4225
a(F1451236953.0087
I850
tp4226
asI-2096940890
(lp4227
sI-2147336890
(lp4228
sI-2147304121
(lp4229
(F1451116711.936987
I5000
tp4230
a(F1451117729.323634
I4700
tp4231
a(F1451118193.029185
I4700
tp4232
a(F1451152456.273869
I5100
tp4233
a(F1451154307.968375
I5100
tp4234
a(F1451157752.974434
I5200
tp4235
a(F1451171369.253737
I5100
tp4236
asI-2147336888
(lp4237
(F1451116297.559718
I1200
tp4238
a(F1451118217.284237
I1200
tp4239
a(F1451118556.084916
I1200
tp4240
a(F1451154383.042571
I1200
tp4241
a(F1451169231.714105
I1200
tp4242
a(F1451171107.44721
I1200
tp4243
asI-2147377845
(lp4244
sI-2147320493
(lp4245
sI-2147295913
(lp4246
sI-2147304104
(lp4247
sI-2147304102
(lp4248
sI-2096980081
(lp4249
(F1451170752.000321
I114000
tp4250
a(F1451585810.407866
I118000
tp4251
asI-2147295894
(lp4252
(F1451117917.146045
I700
tp4253
a(F1451118692.814829
I700
tp4254
a(F1451154085.424351
I750
tp4255
a(F1451170744.018882
I700
tp4256
a(F1451172679.715362
I800
tp4257
asI-2147467925
(lp4258
sI-2147336851
(lp4259
sI-2147312270
(lp4260
sI-2080172658
(lp4261
sI-2147304898
(lp4262
(F1451154473.79067
I800
tp4263
a(F1451210041.84573
I750
tp4264
a(F1451215566.952727
I700
tp4265
a(F1451235700.879748
I800
tp4266
a(F1451462038.757262
I1000
tp4267
a(F1451585864.941541
I700
tp4268
asI-2147377802
(lp4269
sI-2147271297
(lp4270
sI-2147279485
(lp4271
(F1451116541.682274
I1200
tp4272
a(F1451117874.46886
I1200
tp4273
a(F1451118203.881609
I1200
tp4274
a(F1451153927.392802
I1200
tp4275
a(F1451170372.338978
I1300
tp4276
asI-2147320439
(lp4277
(F1451152583.220025
I700
tp4278
a(F1451170461.869649
I700
tp4279
a(F1451172612.599185
I750
tp4280
asI-2147377782
(lp4281
sI-2096967059
(lp4282
(F1451179922.51605
I296000
tp4283
asI-2147304043
(lp4284
(F1451118352.294708
I800
tp4285
a(F1451153843.482351
I800
tp4286
a(F1451173654.041758
I750
tp4287
asI-2096964200
(lp4288
sI-2147295844
(lp4289
sI-2147304035
(lp4290
(F1451152184.377061
I950
tp4291
a(F1451154066.229083
I800
tp4292
asI-2147294630
(lp4293
sI-2147304003
(lp4294
(F1451154646.42939
I800
tp4295
a(F1451157764.172323
I800
tp4296
a(F1451173735.679942
I900
tp4297
a(F1451179202.42643
I800
tp4298
a(F1451210525.064522
I850
tp4299
a(F1451236939.995668
I700
tp4300
asI-2147295802
(lp4301
(F1451118978.38979
I700
tp4302
a(F1451151042.317923
I700
tp4303
a(F1451154243.132515
I700
tp4304
a(F1451170945.253482
I700
tp4305
asI-2147344945
(lp4306
(F1451151010.282792
I700
tp4307
a(F1451154348.939264
I750
tp4308
a(F1451169279.021081
I700
tp4309
asI-2147344944
(lp4310
(F1451118413.120499
I700
tp4311
a(F1451150896.23869
I700
tp4312
asI-2147295790
(lp4313
(F1451155005.674118
I700
tp4314
asI-2147295789
(lp4315
sI-2147279401
(lp4316
(F1451169227.664056
I700
tp4317
a(F1451173689.929553
I650
tp4318
asI-2147271206
(lp4319
sI-2096978694
(lp4320
sI-2147476001
(lp4321
(F1451151081.791807
I650
tp4322
a(F1451153857.343304
I650
tp4323
a(F1451168574.733596
I650
tp4324
asI-2147279389
(lp4325
sI-2147320347
(lp4326
(F1451154257.179762
I650
tp4327
asI-2097013274
(lp4328
sI-2147320345
(lp4329
sI-2096939538
(lp4330
sI-2147303952
(lp4331
(F1451118196.715892
I1100
tp4332
a(F1451153852.027904
I1000
tp4333
asI-2147271179
(lp4334
(F1451152562.688331
I700
tp4335
a(F1451154780.207986
I700
tp4336
asI-2147295752
(lp4337
sI-2147279359
(lp4338
sI-2147336696
(lp4339
sI-2147336694
(lp4340
sI-2147271157
(lp4341
sI-2147285758
(lp4342
sI-2096950976
(lp4343
(F1451173410.27517
I28750
tp4344
asI-2147279341
(lp4345
sI-2147295724
(lp4346
sI-2096947689
(lp4347
(F1451116484.016675
I22000
tp4348
a(F1451154728.345454
I39250
tp4349
a(F1451173401.84793
I26750
tp4350
asI-2147344866
(lp4351
sI-2147295712
(lp4352
sI-2147295709
(lp4353
sI-2147303896
(lp4354
(F1451173218.223311
I700
tp4355
asI-2147271125
(lp4356
sI-2147344850
(lp4357
sI-2147287505
(lp4358
sI-2147287504
(lp4359
(F1451116557.279974
I6700
tp4360
a(F1451116642.930435
I7900
tp4361
a(F1451150739.800119
I7600
tp4362
a(F1451150904.682171
I8000
tp4363
a(F1451154049.764417
I7600
tp4364
a(F1451169081.930544
I7500
tp4365
a(F1451171011.692829
I7900
tp4366
asI-2147336652
(lp4367
sI-2147279307
(lp4368
sI-2147287498
(lp4369
(F1451116444.323545
I700
tp4370
asI-2147303880
(lp4371
sI-2147344838
(lp4372
sI-2096980421
(lp4373
(F1451152359.429394
I900
tp4374
a(F1451207430.159503
I850
tp4375
a(F1451212931.872708
I850
tp4376
a(F1451235332.053065
I900
tp4377
a(F1451323551.195079
I850
tp4378
a(F1451585938.969058
I850
tp4379
asI-2147271107
(lp4380
(F1451153978.876427
I1000
tp4381
asI-2096972217
(lp4382
(F1451154330.950381
I36000
tp4383
a(F1451171433.589287
I31250
tp4384
asI-2147303864
(lp4385
(F1451116527.97148
I1100
tp4386
a(F1451117821.261098
I1100
tp4387
a(F1451179558.987076
I1100
tp4388
a(F1451185419.047528
I1500
tp4389
a(F1451208700.017921
I1100
tp4390
a(F1451215509.043213
I1100
tp4391
asI-2147434931
(lp4392
(F1451152534.463344
I800
tp4393
a(F1451154538.313784
I750
tp4394
a(F1451168855.841992
I800
tp4395
a(F1451213834.012457
I750
tp4396
a(F1451235644.134852
I750
tp4397
a(F1451359476.015819
I750
tp4398
asI-2147279282
(lp4399
(F1451154024.204114
I650
tp4400
asI-2147320241
(lp4401
sI-2147475885
(lp4402
(F1451154808.999504
I900
tp4403
a(F1451171425.754729
I900
tp4404
a(F1451185474.817066
I850
tp4405
a(F1451206508.316842
I1000
tp4406
a(F1451210341.893202
I1100
tp4407
a(F1451235878.764785
I1100
tp4408
asI-2147320230
(lp4409
(F1451118167.804749
I700
tp4410
a(F1451152459.206241
I850
tp4411
a(F1451154419.777911
I750
tp4412
a(F1451169078.045875
I850
tp4413
asI-2147320229
(lp4414
(F1451117749.94908
I1000
tp4415
a(F1451118674.050146
I950
tp4416
a(F1451154325.116661
I1100
tp4417
a(F1451157983.115179
I1200
tp4418
asI-2147320225
(lp4419
(F1451154208.902208
I700
tp4420
a(F1451171038.636709
I700
tp4421
asI-2147303835
(lp4422
(F1451152655.21952
I2700
tp4423
a(F1451170347.738731
I2800
tp4424
a(F1451172628.399371
I2800
tp4425
a(F1451178089.244887
I2600
tp4426
a(F1451186258.81817
I2700
tp4427
a(F1451205005.599701
I2700
tp4428
asI-2147434903
(lp4429
sI-2147279247
(lp4430
sI-2147295298
(lp4431
(F1451209219.85397
I90000
tp4432
a(F1451359451.452825
I89500
tp4433
asI-2147352961
(lp4434
sI-2147303804
(lp4435
(F1451116472.981603
I27250
tp4436
a(F1451116489.942655
I27250
tp4437
a(F1451151131.105342
I28750
tp4438
a(F1451154753.353765
I29000
tp4439
a(F1451168775.396183
I29250
tp4440
a(F1451206031.262544
I28750
tp4441
asI-2147303802
(lp4442
(F1451150853.135561
I1100
tp4443
a(F1451153947.938574
I1100
tp4444
a(F1451171476.159041
I1100
tp4445
a(F1451205238.598581
I1100
tp4446
a(F1451212423.62558
I1200
tp4447
a(F1451236849.578624
I1300
tp4448
asI-2147303801
(lp4449
(F1451118874.187427
I700
tp4450
a(F1451170724.43223
I700
tp4451
a(F1451173712.969016
I700
tp4452
asI-2147271032
(lp4453
sI-2147295607
(lp4454
sI-2147295606
(lp4455
sI-2147295603
(lp4456
(F1451150975.697684
I700
tp4457
asI-2147475822
(lp4458
(F1451116289.303169
I850
tp4459
a(F1451116578.471899
I850
tp4460
a(F1451116679.733349
I850
tp4461
a(F1451116704.977288
I850
tp4462
a(F1451118614.364158
I1000
tp4463
a(F1451154513.063804
I950
tp4464
asI-2147276177
(lp4465
sI-2147320159
(lp4466
sI-2147262814
(lp4467
sI-2147303773
(lp4468
(F1451168714.825789
I700
tp4469
a(F1451172667.808449
I700
tp4470
asI-2147320156
(lp4471
sI-2147344730
(lp4472
sI-2096980312
(lp4473
sI-2147283001
(lp4474
(F1451154970.785958
I700
tp4475
a(F1451170957.16005
I700
tp4476
a(F1451173315.156268
I700
tp4477
asI-2147295567
(lp4478
(F1451157988.129832
I1100
tp4479
a(F1451168833.082629
I1100
tp4480
a(F1451179337.074335
I1000
tp4481
a(F1451205790.192975
I1100
tp4482
a(F1451210468.4417
I1100
tp4483
a(F1451215435.828401
I1200
tp4484
asI-2147295562
(lp4485
(F1451116336.658559
I900
tp4486
a(F1451170997.668905
I750
tp4487
asI-2147459400
(lp4488
sI-2063393083
(lp4489
(F1451151141.075361
I105000
tp4490
asI-2080209631
(lp4491
(F1451152237.547498
I251000
tp4492
a(F1451174105.135046
I247000
tp4493
a(F1451461660.275183
I230000
tp4494
asI-2147320118
(lp4495
sI-2147344692
(lp4496
(F1451118157.149612
I26000
tp4497
a(F1451118973.433813
I25750
tp4498
a(F1451152195.712311
I27750
tp4499
a(F1451154217.280836
I27250
tp4500
a(F1451186949.304259
I28250
tp4501
a(F1451210352.61297
I29000
tp4502
asI-2147319857
(lp4503
sI-2147295524
(lp4504
sI-2147467551
(lp4505
sI-2097013019
(lp4506
sI-2147303704
(lp4507
(F1451117758.561377
I4400
tp4508
a(F1451117887.018059
I4400
tp4509
a(F1451154340.795709
I4600
tp4510
a(F1451173272.692108
I4700
tp4511
a(F1451180001.69272
I4700
tp4512
a(F1451204857.108717
I4500
tp4513
asI-2147279125
(lp4514
sI-2147279123
(lp4515
(F1451116682.098196
I1200
tp4516
a(F1451152486.634424
I1200
tp4517
a(F1451168883.317102
I2000
tp4518
a(F1451174124.361354
I1400
tp4519
a(F1451205282.420584
I1400
tp4520
a(F1451209183.904041
I1400
tp4521
asI-2147279119
(lp4522
(F1451152164.326052
I850
tp4523
a(F1451154102.136327
I900
tp4524
a(F1451168682.43294
I800
tp4525
asI-2147303694
(lp4526
sI-2147377417
(lp4527
(F1451151263.55882
I850
tp4528
a(F1451153899.460588
I850
tp4529
a(F1451168644.318543
I1100
tp4530
a(F1451170478.571285
I850
tp4531
a(F1451177675.874789
I900
tp4532
a(F1451186706.52163
I800
tp4533
asI-2147295496
(lp4534
(F1451116320.604953
I5700
tp4535
a(F1451118485.531779
I6200
tp4536
a(F1451154019.532576
I6000
tp4537
a(F1451157672.449294
I6100
tp4538
a(F1451170400.944854
I6100
tp4539
a(F1451179325.646334
I6000
tp4540
asI-2147270919
(lp4541
sI-2096963846
(lp4542
sI-2147295493
(lp4543
(F1451116470.351084
I850
tp4544
a(F1451150788.783755
I950
tp4545
asI-2080191210
(lp4546
sI-2147320061
(lp4547
(F1451172695.262306
I750
tp4548
asI-2096947450
(lp4549
(F1451118682.658439
I2200
tp4550
a(F1451168790.588146
I2400
tp4551
asI-2147279093
(lp4552
sI-2147311857
(lp4553
(F1451116440.188997
I850
tp4554
a(F1451154640.397672
I850
tp4555
a(F1451213208.04709
I1000
tp4556
a(F1451364838.209048
I1400
tp4557
a(F1451461843.260051
I800
tp4558
asI-2147328240
(lp4559
sI-2096963823
(lp4560
(F1451118230.851733
I800
tp4561
a(F1451118473.187972
I800
tp4562
asI-2147295271
(lp4563
(F1451154222.995086
I3600
tp4564
a(F1451170376.076919
I3700
tp4565
asI-2147289809
(lp4566
sI-2147344610
(lp4567
sI-2147434708
(lp4568
(F1451151013.910835
I7600
tp4569
a(F1451154589.826757
I7900
tp4570
a(F1451157927.439244
I7700
tp4571
a(F1451177763.640018
I7000
tp4572
a(F1451186369.545572
I7600
tp4573
a(F1451206087.282597
I8000
tp4574
asI-2147320017
(lp4575
(F1451157818.958155
I3300
tp4576
a(F1451178132.652773
I3100
tp4577
a(F1451209389.120331
I3300
tp4578
a(F1451213179.831705
I3800
tp4579
a(F1451323264.242933
I4600
tp4580
a(F1451461395.82957
I3400
tp4581
asI-2147311820
(lp4582
sI-2147311818
(lp4583
(F1451170771.190474
I700
tp4584
asI-2147311815
(lp4585
(F1451117687.643373
I19750
tp4586
a(F1451118090.882156
I19750
tp4587
a(F1451152489.361056
I20500
tp4588
a(F1451173766.738551
I21000
tp4589
a(F1451179246.49117
I21000
tp4590
a(F1451186613.144767
I20500
tp4591
asI-2147344580
(lp4592
(F1451118941.714633
I1200
tp4593
a(F1451151103.963217
I1200
tp4594
a(F1451154388.773556
I1200
tp4595
a(F1451177828.965703
I1200
tp4596
a(F1451207294.915661
I1200
tp4597
a(F1451212633.160385
I1200
tp4598
asI-2147279034
(lp4599
sI-2097029151
(lp4600
sI-2096939189
(lp4601
sI-2147270834
(lp4602
sI-2147287216
(lp4603
(F1451117811.926016
I1700
tp4604
a(F1451154191.701736
I1800
tp4605
a(F1451169024.340809
I1800
tp4606
a(F1451172266.307082
I1700
tp4607
asI-2147344554
(lp4608
(F1451118170.661454
I700
tp4609
a(F1451154791.570876
I700
tp4610
a(F1451188730.589554
I700
tp4611
a(F1451207033.344917
I700
tp4612
a(F1451359486.576175
I700
tp4613
a(F1451461645.947611
I800
tp4614
asI-2147270825
(lp4615
sI-2147295395
(lp4616
sI-2147270817
(lp4617
sI-2147311773
(lp4618
(F1451118050.750626
I950
tp4619
a(F1451155190.668627
I1000
tp4620
asI-2147311771
(lp4621
(F1451116190.902514
I900
tp4622
a(F1451116672.184131
I850
tp4623
a(F1451117965.969952
I750
tp4624
a(F1451117993.581939
I750
tp4625
a(F1451118126.915117
I850
tp4626
a(F1451168486.714781
I850
tp4627
a(F1451171697.222639
I900
tp4628
asI-2147310709
(lp4629
sI-2147295378
(lp4630
sI-2147295377
(lp4631
sI-2147319949
(lp4632
(F1451118389.193238
I800
tp4633
a(F1451154892.752791
I900
tp4634
asI-2147434636
(lp4635
(F1451152257.721696
I700
tp4636
a(F1451171720.628886
I700
tp4637
asI-2147311751
(lp4638
(F1451150899.008682
I800
tp4639
a(F1451151157.255544
I800
tp4640
a(F1451154071.872886
I750
tp4641
a(F1451173650.283291
I750
tp4642
asI-2147467394
(lp4643
(F1451118628.860869
I950
tp4644
a(F1451118771.441911
I950
tp4645
a(F1451152167.042952
I1000
tp4646
a(F1451172914.525016
I1100
tp4647
asI-2147319937
(lp4648
(F1451116209.302045
I800
tp4649
a(F1451117366.732329
I950
tp4650
a(F1451117765.375292
I800
tp4651
a(F1451117777.664993
I850
tp4652
a(F1451117791.566858
I850
tp4653
a(F1451118634.114524
I950
tp4654
a(F1451151067.962326
I800
tp4655
a(F1451154815.881367
I750
tp4656
asI-2147434617
(lp4657
sI-2147311729
(lp4658
(F1451118888.501206
I8900
tp4659
a(F1451168686.632681
I9600
tp4660
a(F1451173377.152978
I9700
tp4661
a(F1451207340.099201
I9400
tp4662
a(F1451211936.543334
I9500
tp4663
a(F1451235377.841819
I10500
tp4664
asI-2147303442
(lp4665
(F1451118332.339213
I2200
tp4666
a(F1451153904.964653
I2400
tp4667
a(F1451157815.216652
I2400
tp4668
a(F1451173762.59398
I2400
tp4669
a(F1451186302.498169
I2200
tp4670
a(F1451205193.950794
I2300
tp4671
asI-2147270759
(lp4672
sI-2147295323
(lp4673
(F1451116229.38986
I700
tp4674
a(F1451154136.605167
I700
tp4675
a(F1451172989.900413
I700
tp4676
asI-2147278935
(lp4677
(F1451118225.589099
I850
tp4678
a(F1451150812.686412
I1100
tp4679
a(F1451154322.29343
I950
tp4680
asI-2096939089
(lp4681
(F1451154403.171909
I800
tp4682
a(F1451168697.90638
I800
tp4683
asI-2147319887
(lp4684
sI-2147311694
(lp4685
sI-2147295245
(lp4686
sI-2096963650
(lp4687
(F1451209196.919139
I710000
tp4688
asI-2096963648
(lp4689
sI-2147275626
(lp4690
(F1451116260.17893
I650
tp4691
a(F1451155162.844855
I650
tp4692
a(F1451174132.468604
I650
tp4693
asI-2147311676
(lp4694
sI-2147270707
(lp4695
sI-2147303473
(lp4696
(F1451154268.000805
I1900
tp4697
a(F1451168852.043402
I2000
tp4698
asI-2147278891
(lp4699
sI-2147325276
(lp4700
(F1451172660.527374
I750
tp4701
asI-2096980005
(lp4702
(F1451154374.474458
I650
tp4703
asI-2147434532
(lp4704
sI-2147319842
(lp4705
sI-2147360799
(lp4706
(F1451116281.716356
I700
tp4707
a(F1451116636.282052
I700
tp4708
a(F1451116676.755868
I700
tp4709
a(F1451117956.913294
I700
tp4710
a(F1451118181.812964
I750
tp4711
a(F1451118574.858272
I750
tp4712
a(F1451118983.894993
I750
tp4713
a(F1451152139.305352
I750
tp4714
a(F1451157760.384058
I800
tp4715
asI-2147295260
(lp4716
sI-2147311635
(lp4717
sI-2080194578
(lp4718
sI-2147319824
(lp4719
(F1451154088.154511
I1200
tp4720
asI-2147311630
(lp4721
sI-2147306157
(lp4722
sI-2147303432
(lp4723
(F1451118558.783878
I1500
tp4724
a(F1451154354.770353
I1500
tp4725
a(F1451157919.819632
I1600
tp4726
a(F1451181186.323409
I1600
tp4727
a(F1451206496.274979
I1600
tp4728
a(F1451212412.896484
I1600
tp4729
as.